
EmptyProject.elf:     file format elf32-avr

Sections:
Idx Name          Size      VMA       LMA       File off  Algn
  0 .data         00000044  00800200  0000563a  000056ce  2**0
                  CONTENTS, ALLOC, LOAD, DATA
  1 .text         0000563a  00000000  00000000  00000094  2**1
                  CONTENTS, ALLOC, LOAD, READONLY, CODE
  2 .bss          000012be  00800244  00800244  00005712  2**0
                  ALLOC
  3 .comment      00000011  00000000  00000000  00005712  2**0
                  CONTENTS, READONLY

Disassembly of section .text:

00000000 <__vectors>:
       0:	0c 94 36 02 	jmp	0x46c	; 0x46c <__ctors_end>
       4:	0c 94 57 02 	jmp	0x4ae	; 0x4ae <__bad_interrupt>
       8:	0c 94 57 02 	jmp	0x4ae	; 0x4ae <__bad_interrupt>
       c:	0c 94 57 02 	jmp	0x4ae	; 0x4ae <__bad_interrupt>
      10:	0c 94 57 02 	jmp	0x4ae	; 0x4ae <__bad_interrupt>
      14:	0c 94 57 02 	jmp	0x4ae	; 0x4ae <__bad_interrupt>
      18:	0c 94 57 02 	jmp	0x4ae	; 0x4ae <__bad_interrupt>
      1c:	0c 94 57 02 	jmp	0x4ae	; 0x4ae <__bad_interrupt>
      20:	0c 94 57 02 	jmp	0x4ae	; 0x4ae <__bad_interrupt>
      24:	0c 94 57 02 	jmp	0x4ae	; 0x4ae <__bad_interrupt>
      28:	0c 94 57 02 	jmp	0x4ae	; 0x4ae <__bad_interrupt>
      2c:	0c 94 57 02 	jmp	0x4ae	; 0x4ae <__bad_interrupt>
      30:	0c 94 57 02 	jmp	0x4ae	; 0x4ae <__bad_interrupt>
      34:	0c 94 57 02 	jmp	0x4ae	; 0x4ae <__bad_interrupt>
      38:	0c 94 57 02 	jmp	0x4ae	; 0x4ae <__bad_interrupt>
      3c:	0c 94 57 02 	jmp	0x4ae	; 0x4ae <__bad_interrupt>
      40:	0c 94 57 02 	jmp	0x4ae	; 0x4ae <__bad_interrupt>
      44:	0c 94 57 02 	jmp	0x4ae	; 0x4ae <__bad_interrupt>
      48:	0c 94 57 02 	jmp	0x4ae	; 0x4ae <__bad_interrupt>
      4c:	0c 94 57 02 	jmp	0x4ae	; 0x4ae <__bad_interrupt>
      50:	0c 94 57 02 	jmp	0x4ae	; 0x4ae <__bad_interrupt>
      54:	0c 94 57 02 	jmp	0x4ae	; 0x4ae <__bad_interrupt>
      58:	0c 94 57 02 	jmp	0x4ae	; 0x4ae <__bad_interrupt>
      5c:	0c 94 57 02 	jmp	0x4ae	; 0x4ae <__bad_interrupt>
      60:	0c 94 57 02 	jmp	0x4ae	; 0x4ae <__bad_interrupt>
      64:	0c 94 68 0a 	jmp	0x14d0	; 0x14d0 <__vector_25>
      68:	0c 94 bc 0a 	jmp	0x1578	; 0x1578 <__vector_26>
      6c:	0c 94 57 02 	jmp	0x4ae	; 0x4ae <__bad_interrupt>
      70:	0c 94 57 02 	jmp	0x4ae	; 0x4ae <__bad_interrupt>
      74:	0c 94 57 02 	jmp	0x4ae	; 0x4ae <__bad_interrupt>
      78:	0c 94 57 02 	jmp	0x4ae	; 0x4ae <__bad_interrupt>
      7c:	0c 94 57 02 	jmp	0x4ae	; 0x4ae <__bad_interrupt>
      80:	0c 94 d1 26 	jmp	0x4da2	; 0x4da2 <__vector_32>
      84:	0c 94 57 02 	jmp	0x4ae	; 0x4ae <__bad_interrupt>
      88:	0c 94 57 02 	jmp	0x4ae	; 0x4ae <__bad_interrupt>
      8c:	0c 94 57 02 	jmp	0x4ae	; 0x4ae <__bad_interrupt>
      90:	0c 94 06 0b 	jmp	0x160c	; 0x160c <__vector_36>
      94:	0c 94 5a 0b 	jmp	0x16b4	; 0x16b4 <__vector_37>
      98:	0c 94 57 02 	jmp	0x4ae	; 0x4ae <__bad_interrupt>
      9c:	0c 94 57 02 	jmp	0x4ae	; 0x4ae <__bad_interrupt>
      a0:	0c 94 57 02 	jmp	0x4ae	; 0x4ae <__bad_interrupt>
      a4:	0c 94 57 02 	jmp	0x4ae	; 0x4ae <__bad_interrupt>
      a8:	0c 94 57 02 	jmp	0x4ae	; 0x4ae <__bad_interrupt>
      ac:	0c 94 57 02 	jmp	0x4ae	; 0x4ae <__bad_interrupt>
      b0:	0c 94 57 02 	jmp	0x4ae	; 0x4ae <__bad_interrupt>
      b4:	0c 94 57 02 	jmp	0x4ae	; 0x4ae <__bad_interrupt>
      b8:	0c 94 57 02 	jmp	0x4ae	; 0x4ae <__bad_interrupt>
      bc:	0c 94 57 02 	jmp	0x4ae	; 0x4ae <__bad_interrupt>
      c0:	0c 94 57 02 	jmp	0x4ae	; 0x4ae <__bad_interrupt>
      c4:	0c 94 57 02 	jmp	0x4ae	; 0x4ae <__bad_interrupt>
      c8:	0c 94 57 02 	jmp	0x4ae	; 0x4ae <__bad_interrupt>
      cc:	0c 94 57 02 	jmp	0x4ae	; 0x4ae <__bad_interrupt>
      d0:	0c 94 57 02 	jmp	0x4ae	; 0x4ae <__bad_interrupt>
      d4:	0c 94 57 02 	jmp	0x4ae	; 0x4ae <__bad_interrupt>
      d8:	0c 94 57 02 	jmp	0x4ae	; 0x4ae <__bad_interrupt>
      dc:	0c 94 57 02 	jmp	0x4ae	; 0x4ae <__bad_interrupt>
      e0:	0c 94 57 02 	jmp	0x4ae	; 0x4ae <__bad_interrupt>

000000e4 <__trampolines_start>:
      e4:	0c 94 40 1b 	jmp	0x3680	; 0x3680 <vTaskList+0xc>
      e8:	0c 94 40 0f 	jmp	0x1e80	; 0x1e80 <vTaskDelayUntil+0xc>
      ec:	0c 94 da 03 	jmp	0x7b4	; 0x7b4 <xSerialPrintf+0xc>
      f0:	0c 94 6c 08 	jmp	0x10d8	; 0x10d8 <avrSerialPrintf+0xc>
      f4:	0c 94 d6 0d 	jmp	0x1bac	; 0x1bac <xTaskGenericCreate+0xc>
      f8:	0c 94 ec 10 	jmp	0x21d8	; 0x21d8 <vTaskDelay+0xc>
      fc:	0c 94 93 13 	jmp	0x2726	; 0x2726 <vTaskResume+0xc>
     100:	0c 94 b3 00 	jmp	0x166	; 0x166 <prvIdleTask>
     104:	0c 94 1e 20 	jmp	0x403c	; 0x403c <vTaskGetRunTimeStats+0xc>
     108:	0c 94 a3 02 	jmp	0x546	; 0x546 <initLCD+0xc>
     10c:	0c 94 c0 09 	jmp	0x1380	; 0x1380 <avrSerialxPrint_P+0xc>
     110:	0c 94 8d 09 	jmp	0x131a	; 0x131a <avrSerialxPrintf_P+0xc>
     114:	0c 94 d1 02 	jmp	0x5a2	; 0x5a2 <displayOneMessage+0xc>
     118:	0c 94 ad 05 	jmp	0xb5a	; 0xb5a <xSerialxPrintf_P+0xc>
     11c:	0c 94 15 04 	jmp	0x82a	; 0x82a <xSerialPrintf_P+0xc>
     120:	0c 94 7c 05 	jmp	0xaf8	; 0xaf8 <xSerialxPrintf+0xc>
     124:	0c 94 49 07 	jmp	0xe92	; 0xe92 <xSerialPortInitMinimal+0xc>
     128:	0c 94 f7 02 	jmp	0x5ee	; 0x5ee <displayTwoMessages+0xc>
     12c:	0c 94 3f 15 	jmp	0x2a7e	; 0x2a7e <xTaskResumeAll+0xc>
     130:	0c 94 a4 08 	jmp	0x1148	; 0x1148 <avrSerialPrintf_P+0xc>
     134:	0c 94 5a 09 	jmp	0x12b4	; 0x12b4 <avrSerialxPrintf+0xc>
     138:	0c 94 aa 0b 	jmp	0x1754	; 0x1754 <pvPortMalloc+0xc>
     13c:	0c 94 7b 02 	jmp	0x4f6	; 0x4f6 <sendChar+0xc>
     140:	0c 94 b9 00 	jmp	0x172	; 0x172 <prvIdleTask+0xc>

00000144 <__trampolines_end>:
     144:	25 73       	andi	r18, 0x35	; 53
	...

00000147 <__c.2368>:
     147:	25 63 00                                            %c.

0000014a <__c.2366>:
     14a:	25 63 00                                            %c.

0000014d <__c.2354>:
     14d:	49 6e 69 74 69 61 6c 69 7a 65 64 20 4c 43 44 20     Initialized LCD 
     15d:	4d 6f 64 75 6c 65 0a 00 00                          Module...

00000166 <prvIdleTask>:
     166:	a0 e0       	ldi	r26, 0x00	; 0
     168:	b0 e0       	ldi	r27, 0x00	; 0
     16a:	e9 eb       	ldi	r30, 0xB9	; 185
     16c:	f0 e0       	ldi	r31, 0x00	; 0
     16e:	0c 94 99 27 	jmp	0x4f32	; 0x4f32 <__prologue_saves__+0xe>
     172:	cc 24       	eor	r12, r12
     174:	c3 94       	inc	r12
     176:	ee 24       	eor	r14, r14
     178:	ea 94       	dec	r14
     17a:	fe 2c       	mov	r15, r14
     17c:	04 c0       	rjmp	.+8      	; 0x186 <prvIdleTask+0x20>
     17e:	0f 90       	pop	r0
     180:	0f be       	out	0x3f, r0	; 63
     182:	d1 10       	cpse	r13, r1
     184:	2e c1       	rjmp	.+604    	; 0x3e2 <prvIdleTask+0x27c>
     186:	80 91 67 14 	lds	r24, 0x1467
     18a:	88 23       	and	r24, r24
     18c:	09 f4       	brne	.+2      	; 0x190 <prvIdleTask+0x2a>
     18e:	4d c1       	rjmp	.+666    	; 0x42a <prvIdleTask+0x2c4>
     190:	80 91 54 14 	lds	r24, 0x1454
     194:	8f 5f       	subi	r24, 0xFF	; 255
     196:	80 93 54 14 	sts	0x1454, r24
     19a:	d0 90 68 14 	lds	r13, 0x1468
     19e:	0f b6       	in	r0, 0x3f	; 63
     1a0:	f8 94       	cli
     1a2:	0f 92       	push	r0
     1a4:	80 91 54 14 	lds	r24, 0x1454
     1a8:	81 50       	subi	r24, 0x01	; 1
     1aa:	80 93 54 14 	sts	0x1454, r24
     1ae:	80 91 54 14 	lds	r24, 0x1454
     1b2:	81 11       	cpse	r24, r1
     1b4:	e4 cf       	rjmp	.-56     	; 0x17e <prvIdleTask+0x18>
     1b6:	80 91 5d 14 	lds	r24, 0x145D
     1ba:	88 23       	and	r24, r24
     1bc:	01 f3       	breq	.-64     	; 0x17e <prvIdleTask+0x18>
     1be:	80 91 71 14 	lds	r24, 0x1471
     1c2:	88 23       	and	r24, r24
     1c4:	99 f1       	breq	.+102    	; 0x22c <prvIdleTask+0xc6>
     1c6:	e0 91 76 14 	lds	r30, 0x1476
     1ca:	f0 91 77 14 	lds	r31, 0x1477
     1ce:	c6 81       	ldd	r28, Z+6	; 0x06
     1d0:	d7 81       	ldd	r29, Z+7	; 0x07
     1d2:	ce 01       	movw	r24, r28
     1d4:	0c 96       	adiw	r24, 0x0c	; 12
     1d6:	0e 94 38 27 	call	0x4e70	; 0x4e70 <uxListRemove>
     1da:	8e 01       	movw	r16, r28
     1dc:	0e 5f       	subi	r16, 0xFE	; 254
     1de:	1f 4f       	sbci	r17, 0xFF	; 255
     1e0:	c8 01       	movw	r24, r16
     1e2:	0e 94 38 27 	call	0x4e70	; 0x4e70 <uxListRemove>
     1e6:	2e 89       	ldd	r18, Y+22	; 0x16
     1e8:	80 91 5a 14 	lds	r24, 0x145A
     1ec:	82 17       	cp	r24, r18
     1ee:	10 f4       	brcc	.+4      	; 0x1f4 <prvIdleTask+0x8e>
     1f0:	20 93 5a 14 	sts	0x145A, r18
     1f4:	30 e0       	ldi	r19, 0x00	; 0
     1f6:	c9 01       	movw	r24, r18
     1f8:	88 0f       	add	r24, r24
     1fa:	99 1f       	adc	r25, r25
     1fc:	88 0f       	add	r24, r24
     1fe:	99 1f       	adc	r25, r25
     200:	88 0f       	add	r24, r24
     202:	99 1f       	adc	r25, r25
     204:	82 0f       	add	r24, r18
     206:	93 1f       	adc	r25, r19
     208:	b8 01       	movw	r22, r16
     20a:	80 57       	subi	r24, 0x70	; 112
     20c:	9b 4e       	sbci	r25, 0xEB	; 235
     20e:	0e 94 e6 26 	call	0x4dcc	; 0x4dcc <vListInsertEnd>
     212:	e0 91 b4 14 	lds	r30, 0x14B4
     216:	f0 91 b5 14 	lds	r31, 0x14B5
     21a:	9e 89       	ldd	r25, Y+22	; 0x16
     21c:	86 89       	ldd	r24, Z+22	; 0x16
     21e:	98 17       	cp	r25, r24
     220:	08 f0       	brcs	.+2      	; 0x224 <prvIdleTask+0xbe>
     222:	0b c1       	rjmp	.+534    	; 0x43a <prvIdleTask+0x2d4>
     224:	80 91 71 14 	lds	r24, 0x1471
     228:	81 11       	cpse	r24, r1
     22a:	cd cf       	rjmp	.-102    	; 0x1c6 <prvIdleTask+0x60>
     22c:	80 91 58 14 	lds	r24, 0x1458
     230:	88 23       	and	r24, r24
     232:	09 f4       	brne	.+2      	; 0x236 <prvIdleTask+0xd0>
     234:	ca c0       	rjmp	.+404    	; 0x3ca <prvIdleTask+0x264>
     236:	80 91 58 14 	lds	r24, 0x1458
     23a:	81 11       	cpse	r24, r1
     23c:	5c c0       	rjmp	.+184    	; 0x2f6 <prvIdleTask+0x190>
     23e:	c5 c0       	rjmp	.+394    	; 0x3ca <prvIdleTask+0x264>
     240:	80 91 5b 14 	lds	r24, 0x145B
     244:	90 91 5c 14 	lds	r25, 0x145C
     248:	01 96       	adiw	r24, 0x01	; 1
     24a:	90 93 5c 14 	sts	0x145C, r25
     24e:	80 93 5b 14 	sts	0x145B, r24
     252:	00 91 5b 14 	lds	r16, 0x145B
     256:	10 91 5c 14 	lds	r17, 0x145C
     25a:	01 15       	cp	r16, r1
     25c:	11 05       	cpc	r17, r1
     25e:	01 f5       	brne	.+64     	; 0x2a0 <prvIdleTask+0x13a>
     260:	80 91 7c 14 	lds	r24, 0x147C
     264:	90 91 7d 14 	lds	r25, 0x147D
     268:	20 91 7a 14 	lds	r18, 0x147A
     26c:	30 91 7b 14 	lds	r19, 0x147B
     270:	30 93 7d 14 	sts	0x147D, r19
     274:	20 93 7c 14 	sts	0x147C, r18
     278:	90 93 7b 14 	sts	0x147B, r25
     27c:	80 93 7a 14 	sts	0x147A, r24
     280:	80 91 56 14 	lds	r24, 0x1456
     284:	8f 5f       	subi	r24, 0xFF	; 255
     286:	80 93 56 14 	sts	0x1456, r24
     28a:	e0 91 7c 14 	lds	r30, 0x147C
     28e:	f0 91 7d 14 	lds	r31, 0x147D
     292:	80 81       	ld	r24, Z
     294:	81 11       	cpse	r24, r1
     296:	d4 c0       	rjmp	.+424    	; 0x440 <prvIdleTask+0x2da>
     298:	f0 92 05 02 	sts	0x0205, r15
     29c:	e0 92 04 02 	sts	0x0204, r14
     2a0:	80 91 04 02 	lds	r24, 0x0204
     2a4:	90 91 05 02 	lds	r25, 0x0205
     2a8:	91 2c       	mov	r9, r1
     2aa:	08 17       	cp	r16, r24
     2ac:	19 07       	cpc	r17, r25
     2ae:	90 f5       	brcc	.+100    	; 0x314 <prvIdleTask+0x1ae>
     2b0:	e0 91 b4 14 	lds	r30, 0x14B4
     2b4:	f0 91 b5 14 	lds	r31, 0x14B5
     2b8:	86 89       	ldd	r24, Z+22	; 0x16
     2ba:	90 e0       	ldi	r25, 0x00	; 0
     2bc:	fc 01       	movw	r30, r24
     2be:	ee 0f       	add	r30, r30
     2c0:	ff 1f       	adc	r31, r31
     2c2:	ee 0f       	add	r30, r30
     2c4:	ff 1f       	adc	r31, r31
     2c6:	ee 0f       	add	r30, r30
     2c8:	ff 1f       	adc	r31, r31
     2ca:	e8 0f       	add	r30, r24
     2cc:	f9 1f       	adc	r31, r25
     2ce:	e0 57       	subi	r30, 0x70	; 112
     2d0:	fb 4e       	sbci	r31, 0xEB	; 235
     2d2:	80 81       	ld	r24, Z
     2d4:	82 30       	cpi	r24, 0x02	; 2
     2d6:	08 f4       	brcc	.+2      	; 0x2da <prvIdleTask+0x174>
     2d8:	70 c0       	rjmp	.+224    	; 0x3ba <prvIdleTask+0x254>
     2da:	80 91 57 14 	lds	r24, 0x1457
     2de:	c0 92 57 14 	sts	0x1457, r12
     2e2:	80 91 58 14 	lds	r24, 0x1458
     2e6:	81 50       	subi	r24, 0x01	; 1
     2e8:	80 93 58 14 	sts	0x1458, r24
     2ec:	80 91 58 14 	lds	r24, 0x1458
     2f0:	88 23       	and	r24, r24
     2f2:	09 f4       	brne	.+2      	; 0x2f6 <prvIdleTask+0x190>
     2f4:	6a c0       	rjmp	.+212    	; 0x3ca <prvIdleTask+0x264>
     2f6:	80 91 54 14 	lds	r24, 0x1454
     2fa:	88 23       	and	r24, r24
     2fc:	09 f4       	brne	.+2      	; 0x300 <prvIdleTask+0x19a>
     2fe:	a0 cf       	rjmp	.-192    	; 0x240 <prvIdleTask+0xda>
     300:	80 91 58 14 	lds	r24, 0x1458
     304:	8f 5f       	subi	r24, 0xFF	; 255
     306:	80 93 58 14 	sts	0x1458, r24
     30a:	80 91 57 14 	lds	r24, 0x1457
     30e:	81 11       	cpse	r24, r1
     310:	e6 cf       	rjmp	.-52     	; 0x2de <prvIdleTask+0x178>
     312:	e7 cf       	rjmp	.-50     	; 0x2e2 <prvIdleTask+0x17c>
     314:	e0 91 7c 14 	lds	r30, 0x147C
     318:	f0 91 7d 14 	lds	r31, 0x147D
     31c:	80 81       	ld	r24, Z
     31e:	88 23       	and	r24, r24
     320:	09 f4       	brne	.+2      	; 0x324 <prvIdleTask+0x1be>
     322:	46 c0       	rjmp	.+140    	; 0x3b0 <prvIdleTask+0x24a>
     324:	e0 91 7c 14 	lds	r30, 0x147C
     328:	f0 91 7d 14 	lds	r31, 0x147D
     32c:	05 80       	ldd	r0, Z+5	; 0x05
     32e:	f6 81       	ldd	r31, Z+6	; 0x06
     330:	e0 2d       	mov	r30, r0
     332:	c6 81       	ldd	r28, Z+6	; 0x06
     334:	d7 81       	ldd	r29, Z+7	; 0x07
     336:	8a 81       	ldd	r24, Y+2	; 0x02
     338:	9b 81       	ldd	r25, Y+3	; 0x03
     33a:	08 17       	cp	r16, r24
     33c:	19 07       	cpc	r17, r25
     33e:	08 f4       	brcc	.+2      	; 0x342 <prvIdleTask+0x1dc>
     340:	90 c0       	rjmp	.+288    	; 0x462 <prvIdleTask+0x2fc>
     342:	5e 01       	movw	r10, r28
     344:	82 e0       	ldi	r24, 0x02	; 2
     346:	a8 0e       	add	r10, r24
     348:	b1 1c       	adc	r11, r1
     34a:	c5 01       	movw	r24, r10
     34c:	0e 94 38 27 	call	0x4e70	; 0x4e70 <uxListRemove>
     350:	8c 89       	ldd	r24, Y+20	; 0x14
     352:	9d 89       	ldd	r25, Y+21	; 0x15
     354:	89 2b       	or	r24, r25
     356:	21 f0       	breq	.+8      	; 0x360 <prvIdleTask+0x1fa>
     358:	ce 01       	movw	r24, r28
     35a:	0c 96       	adiw	r24, 0x0c	; 12
     35c:	0e 94 38 27 	call	0x4e70	; 0x4e70 <uxListRemove>
     360:	2e 89       	ldd	r18, Y+22	; 0x16
     362:	80 91 5a 14 	lds	r24, 0x145A
     366:	82 17       	cp	r24, r18
     368:	10 f4       	brcc	.+4      	; 0x36e <prvIdleTask+0x208>
     36a:	20 93 5a 14 	sts	0x145A, r18
     36e:	30 e0       	ldi	r19, 0x00	; 0
     370:	c9 01       	movw	r24, r18
     372:	88 0f       	add	r24, r24
     374:	99 1f       	adc	r25, r25
     376:	88 0f       	add	r24, r24
     378:	99 1f       	adc	r25, r25
     37a:	88 0f       	add	r24, r24
     37c:	99 1f       	adc	r25, r25
     37e:	82 0f       	add	r24, r18
     380:	93 1f       	adc	r25, r19
     382:	b5 01       	movw	r22, r10
     384:	80 57       	subi	r24, 0x70	; 112
     386:	9b 4e       	sbci	r25, 0xEB	; 235
     388:	0e 94 e6 26 	call	0x4dcc	; 0x4dcc <vListInsertEnd>
     38c:	e0 91 b4 14 	lds	r30, 0x14B4
     390:	f0 91 b5 14 	lds	r31, 0x14B5
     394:	9e 89       	ldd	r25, Y+22	; 0x16
     396:	86 89       	ldd	r24, Z+22	; 0x16
     398:	98 17       	cp	r25, r24
     39a:	08 f4       	brcc	.+2      	; 0x39e <prvIdleTask+0x238>
     39c:	bb cf       	rjmp	.-138    	; 0x314 <prvIdleTask+0x1ae>
     39e:	99 24       	eor	r9, r9
     3a0:	93 94       	inc	r9
     3a2:	e0 91 7c 14 	lds	r30, 0x147C
     3a6:	f0 91 7d 14 	lds	r31, 0x147D
     3aa:	80 81       	ld	r24, Z
     3ac:	81 11       	cpse	r24, r1
     3ae:	ba cf       	rjmp	.-140    	; 0x324 <prvIdleTask+0x1be>
     3b0:	f0 92 05 02 	sts	0x0205, r15
     3b4:	e0 92 04 02 	sts	0x0204, r14
     3b8:	7b cf       	rjmp	.-266    	; 0x2b0 <prvIdleTask+0x14a>
     3ba:	80 91 57 14 	lds	r24, 0x1457
     3be:	81 11       	cpse	r24, r1
     3c0:	8e cf       	rjmp	.-228    	; 0x2de <prvIdleTask+0x178>
     3c2:	99 20       	and	r9, r9
     3c4:	09 f4       	brne	.+2      	; 0x3c8 <prvIdleTask+0x262>
     3c6:	8d cf       	rjmp	.-230    	; 0x2e2 <prvIdleTask+0x17c>
     3c8:	8a cf       	rjmp	.-236    	; 0x2de <prvIdleTask+0x178>
     3ca:	80 91 57 14 	lds	r24, 0x1457
     3ce:	81 30       	cpi	r24, 0x01	; 1
     3d0:	09 f0       	breq	.+2      	; 0x3d4 <prvIdleTask+0x26e>
     3d2:	d5 ce       	rjmp	.-598    	; 0x17e <prvIdleTask+0x18>
     3d4:	0e 94 f7 25 	call	0x4bee	; 0x4bee <vPortYield>
     3d8:	0f 90       	pop	r0
     3da:	0f be       	out	0x3f, r0	; 63
     3dc:	dd 20       	and	r13, r13
     3de:	09 f4       	brne	.+2      	; 0x3e2 <prvIdleTask+0x27c>
     3e0:	d2 ce       	rjmp	.-604    	; 0x186 <prvIdleTask+0x20>
     3e2:	0f b6       	in	r0, 0x3f	; 63
     3e4:	f8 94       	cli
     3e6:	0f 92       	push	r0
     3e8:	e0 91 6d 14 	lds	r30, 0x146D
     3ec:	f0 91 6e 14 	lds	r31, 0x146E
     3f0:	c6 81       	ldd	r28, Z+6	; 0x06
     3f2:	d7 81       	ldd	r29, Z+7	; 0x07
     3f4:	ce 01       	movw	r24, r28
     3f6:	02 96       	adiw	r24, 0x02	; 2
     3f8:	0e 94 38 27 	call	0x4e70	; 0x4e70 <uxListRemove>
     3fc:	80 91 5d 14 	lds	r24, 0x145D
     400:	81 50       	subi	r24, 0x01	; 1
     402:	80 93 5d 14 	sts	0x145D, r24
     406:	80 91 67 14 	lds	r24, 0x1467
     40a:	81 50       	subi	r24, 0x01	; 1
     40c:	80 93 67 14 	sts	0x1467, r24
     410:	0f 90       	pop	r0
     412:	0f be       	out	0x3f, r0	; 63
     414:	8f 89       	ldd	r24, Y+23	; 0x17
     416:	98 8d       	ldd	r25, Y+24	; 0x18
     418:	0e 94 aa 0c 	call	0x1954	; 0x1954 <vPortFree>
     41c:	ce 01       	movw	r24, r28
     41e:	0e 94 aa 0c 	call	0x1954	; 0x1954 <vPortFree>
     422:	80 91 67 14 	lds	r24, 0x1467
     426:	81 11       	cpse	r24, r1
     428:	b3 ce       	rjmp	.-666    	; 0x190 <prvIdleTask+0x2a>
     42a:	80 91 90 14 	lds	r24, 0x1490
     42e:	82 30       	cpi	r24, 0x02	; 2
     430:	08 f4       	brcc	.+2      	; 0x434 <prvIdleTask+0x2ce>
     432:	a9 ce       	rjmp	.-686    	; 0x186 <prvIdleTask+0x20>
     434:	0e 94 f7 25 	call	0x4bee	; 0x4bee <vPortYield>
     438:	a6 ce       	rjmp	.-692    	; 0x186 <prvIdleTask+0x20>
     43a:	c0 92 57 14 	sts	0x1457, r12
     43e:	f2 ce       	rjmp	.-540    	; 0x224 <prvIdleTask+0xbe>
     440:	e0 91 7c 14 	lds	r30, 0x147C
     444:	f0 91 7d 14 	lds	r31, 0x147D
     448:	05 80       	ldd	r0, Z+5	; 0x05
     44a:	f6 81       	ldd	r31, Z+6	; 0x06
     44c:	e0 2d       	mov	r30, r0
     44e:	06 80       	ldd	r0, Z+6	; 0x06
     450:	f7 81       	ldd	r31, Z+7	; 0x07
     452:	e0 2d       	mov	r30, r0
     454:	82 81       	ldd	r24, Z+2	; 0x02
     456:	93 81       	ldd	r25, Z+3	; 0x03
     458:	90 93 05 02 	sts	0x0205, r25
     45c:	80 93 04 02 	sts	0x0204, r24
     460:	1f cf       	rjmp	.-450    	; 0x2a0 <prvIdleTask+0x13a>
     462:	90 93 05 02 	sts	0x0205, r25
     466:	80 93 04 02 	sts	0x0204, r24
     46a:	22 cf       	rjmp	.-444    	; 0x2b0 <prvIdleTask+0x14a>

0000046c <__ctors_end>:
     46c:	11 24       	eor	r1, r1
     46e:	1f be       	out	0x3f, r1	; 63
     470:	cf ef       	ldi	r28, 0xFF	; 255
     472:	d1 e2       	ldi	r29, 0x21	; 33
     474:	de bf       	out	0x3e, r29	; 62
     476:	cd bf       	out	0x3d, r28	; 61
     478:	00 e0       	ldi	r16, 0x00	; 0
     47a:	0c bf       	out	0x3c, r16	; 60

0000047c <__do_copy_data>:
     47c:	12 e0       	ldi	r17, 0x02	; 2
     47e:	a0 e0       	ldi	r26, 0x00	; 0
     480:	b2 e0       	ldi	r27, 0x02	; 2
     482:	ea e3       	ldi	r30, 0x3A	; 58
     484:	f6 e5       	ldi	r31, 0x56	; 86
     486:	00 e0       	ldi	r16, 0x00	; 0
     488:	0b bf       	out	0x3b, r16	; 59
     48a:	02 c0       	rjmp	.+4      	; 0x490 <__do_copy_data+0x14>
     48c:	07 90       	elpm	r0, Z+
     48e:	0d 92       	st	X+, r0
     490:	a4 34       	cpi	r26, 0x44	; 68
     492:	b1 07       	cpc	r27, r17
     494:	d9 f7       	brne	.-10     	; 0x48c <__do_copy_data+0x10>

00000496 <__do_clear_bss>:
     496:	25 e1       	ldi	r18, 0x15	; 21
     498:	a4 e4       	ldi	r26, 0x44	; 68
     49a:	b2 e0       	ldi	r27, 0x02	; 2
     49c:	01 c0       	rjmp	.+2      	; 0x4a0 <.do_clear_bss_start>

0000049e <.do_clear_bss_loop>:
     49e:	1d 92       	st	X+, r1

000004a0 <.do_clear_bss_start>:
     4a0:	a2 30       	cpi	r26, 0x02	; 2
     4a2:	b2 07       	cpc	r27, r18
     4a4:	e1 f7       	brne	.-8      	; 0x49e <.do_clear_bss_loop>
     4a6:	0e 94 29 03 	call	0x652	; 0x652 <main>
     4aa:	0c 94 1b 2b 	jmp	0x5636	; 0x5636 <_exit>

000004ae <__bad_interrupt>:
     4ae:	0c 94 00 00 	jmp	0	; 0x0 <__vectors>

000004b2 <system_tick>:
     4b2:	8f 93       	push	r24
     4b4:	8f b7       	in	r24, 0x3f	; 63
     4b6:	8f 93       	push	r24
     4b8:	f8 94       	cli
     4ba:	80 91 fe 14 	lds	r24, 0x14FE
     4be:	8f 5f       	subi	r24, 0xFF	; 255
     4c0:	80 93 fe 14 	sts	0x14FE, r24
     4c4:	80 91 ff 14 	lds	r24, 0x14FF
     4c8:	8f 4f       	sbci	r24, 0xFF	; 255
     4ca:	80 93 ff 14 	sts	0x14FF, r24
     4ce:	80 91 00 15 	lds	r24, 0x1500
     4d2:	8f 4f       	sbci	r24, 0xFF	; 255
     4d4:	80 93 00 15 	sts	0x1500, r24
     4d8:	80 91 01 15 	lds	r24, 0x1501
     4dc:	8f 4f       	sbci	r24, 0xFF	; 255
     4de:	80 93 01 15 	sts	0x1501, r24
     4e2:	8f 91       	pop	r24
     4e4:	8f bf       	out	0x3f, r24	; 63
     4e6:	8f 91       	pop	r24
     4e8:	08 95       	ret

000004ea <sendChar>:
     4ea:	a1 e0       	ldi	r26, 0x01	; 1
     4ec:	b0 e0       	ldi	r27, 0x00	; 0
     4ee:	eb e7       	ldi	r30, 0x7B	; 123
     4f0:	f2 e0       	ldi	r31, 0x02	; 2
     4f2:	0c 94 a0 27 	jmp	0x4f40	; 0x4f40 <__prologue_saves__+0x1c>
     4f6:	1f 92       	push	r1
     4f8:	9e ef       	ldi	r25, 0xFE	; 254
     4fa:	9f 93       	push	r25
     4fc:	2a e4       	ldi	r18, 0x4A	; 74
     4fe:	31 e0       	ldi	r19, 0x01	; 1
     500:	3f 93       	push	r19
     502:	2f 93       	push	r18
     504:	0e eb       	ldi	r16, 0xBE	; 190
     506:	14 e1       	ldi	r17, 0x14	; 20
     508:	1f 93       	push	r17
     50a:	0f 93       	push	r16
     50c:	89 83       	std	Y+1, r24	; 0x01
     50e:	0e 94 87 09 	call	0x130e	; 0x130e <avrSerialxPrintf_P>
     512:	1f 92       	push	r1
     514:	89 81       	ldd	r24, Y+1	; 0x01
     516:	8f 93       	push	r24
     518:	87 e4       	ldi	r24, 0x47	; 71
     51a:	91 e0       	ldi	r25, 0x01	; 1
     51c:	9f 93       	push	r25
     51e:	8f 93       	push	r24
     520:	1f 93       	push	r17
     522:	0f 93       	push	r16
     524:	0e 94 87 09 	call	0x130e	; 0x130e <avrSerialxPrintf_P>
     528:	0f b6       	in	r0, 0x3f	; 63
     52a:	f8 94       	cli
     52c:	de bf       	out	0x3e, r29	; 62
     52e:	0f be       	out	0x3f, r0	; 63
     530:	cd bf       	out	0x3d, r28	; 61
     532:	21 96       	adiw	r28, 0x01	; 1
     534:	e4 e0       	ldi	r30, 0x04	; 4
     536:	0c 94 bc 27 	jmp	0x4f78	; 0x4f78 <__epilogue_restores__+0x1c>

0000053a <initLCD>:
     53a:	a0 e2       	ldi	r26, 0x20	; 32
     53c:	b0 e0       	ldi	r27, 0x00	; 0
     53e:	e3 ea       	ldi	r30, 0xA3	; 163
     540:	f2 e0       	ldi	r31, 0x02	; 2
     542:	0c 94 9e 27 	jmp	0x4f3c	; 0x4f3c <__prologue_saves__+0x18>
     546:	80 e4       	ldi	r24, 0x40	; 64
     548:	e8 2e       	mov	r14, r24
     54a:	f1 2c       	mov	r15, r1
     54c:	0f ef       	ldi	r16, 0xFF	; 255
     54e:	10 e0       	ldi	r17, 0x00	; 0
     550:	20 e8       	ldi	r18, 0x80	; 128
     552:	35 e2       	ldi	r19, 0x25	; 37
     554:	40 e0       	ldi	r20, 0x00	; 0
     556:	50 e0       	ldi	r21, 0x00	; 0
     558:	61 e0       	ldi	r22, 0x01	; 1
     55a:	70 e0       	ldi	r23, 0x00	; 0
     55c:	ce 01       	movw	r24, r28
     55e:	01 96       	adiw	r24, 0x01	; 1
     560:	0e 94 43 07 	call	0xe86	; 0xe86 <xSerialPortInitMinimal>
     564:	80 e2       	ldi	r24, 0x20	; 32
     566:	fe 01       	movw	r30, r28
     568:	31 96       	adiw	r30, 0x01	; 1
     56a:	ae eb       	ldi	r26, 0xBE	; 190
     56c:	b4 e1       	ldi	r27, 0x14	; 20
     56e:	01 90       	ld	r0, Z+
     570:	0d 92       	st	X+, r0
     572:	8a 95       	dec	r24
     574:	e1 f7       	brne	.-8      	; 0x56e <initLCD+0x34>
     576:	88 e3       	ldi	r24, 0x38	; 56
     578:	0e 94 75 02 	call	0x4ea	; 0x4ea <sendChar>
     57c:	81 e0       	ldi	r24, 0x01	; 1
     57e:	0e 94 75 02 	call	0x4ea	; 0x4ea <sendChar>
     582:	6d e4       	ldi	r22, 0x4D	; 77
     584:	71 e0       	ldi	r23, 0x01	; 1
     586:	8e eb       	ldi	r24, 0xBE	; 190
     588:	94 e1       	ldi	r25, 0x14	; 20
     58a:	0e 94 d8 05 	call	0xbb0	; 0xbb0 <xSerialxPrint_P>
     58e:	a0 96       	adiw	r28, 0x20	; 32
     590:	e6 e0       	ldi	r30, 0x06	; 6
     592:	0c 94 ba 27 	jmp	0x4f74	; 0x4f74 <__epilogue_restores__+0x18>

00000596 <displayOneMessage>:
     596:	a1 e0       	ldi	r26, 0x01	; 1
     598:	b0 e0       	ldi	r27, 0x00	; 0
     59a:	e1 ed       	ldi	r30, 0xD1	; 209
     59c:	f2 e0       	ldi	r31, 0x02	; 2
     59e:	0c 94 a1 27 	jmp	0x4f42	; 0x4f42 <__prologue_saves__+0x1e>
     5a2:	18 2f       	mov	r17, r24
     5a4:	81 e0       	ldi	r24, 0x01	; 1
     5a6:	99 83       	std	Y+1, r25	; 0x01
     5a8:	0e 94 75 02 	call	0x4ea	; 0x4ea <sendChar>
     5ac:	99 81       	ldd	r25, Y+1	; 0x01
     5ae:	9f 93       	push	r25
     5b0:	1f 93       	push	r17
     5b2:	84 e4       	ldi	r24, 0x44	; 68
     5b4:	91 e0       	ldi	r25, 0x01	; 1
     5b6:	9f 93       	push	r25
     5b8:	8f 93       	push	r24
     5ba:	8e eb       	ldi	r24, 0xBE	; 190
     5bc:	94 e1       	ldi	r25, 0x14	; 20
     5be:	9f 93       	push	r25
     5c0:	8f 93       	push	r24
     5c2:	0e 94 87 09 	call	0x130e	; 0x130e <avrSerialxPrintf_P>
     5c6:	8e eb       	ldi	r24, 0xBE	; 190
     5c8:	94 e1       	ldi	r25, 0x14	; 20
     5ca:	0e 94 78 06 	call	0xcf0	; 0xcf0 <xSerialFlush>
     5ce:	0f 90       	pop	r0
     5d0:	0f 90       	pop	r0
     5d2:	0f 90       	pop	r0
     5d4:	0f 90       	pop	r0
     5d6:	0f 90       	pop	r0
     5d8:	0f 90       	pop	r0
     5da:	21 96       	adiw	r28, 0x01	; 1
     5dc:	e3 e0       	ldi	r30, 0x03	; 3
     5de:	0c 94 bd 27 	jmp	0x4f7a	; 0x4f7a <__epilogue_restores__+0x1e>

000005e2 <displayTwoMessages>:
     5e2:	a3 e0       	ldi	r26, 0x03	; 3
     5e4:	b0 e0       	ldi	r27, 0x00	; 0
     5e6:	e7 ef       	ldi	r30, 0xF7	; 247
     5e8:	f2 e0       	ldi	r31, 0x02	; 2
     5ea:	0c 94 9e 27 	jmp	0x4f3c	; 0x4f3c <__prologue_saves__+0x18>
     5ee:	18 2f       	mov	r17, r24
     5f0:	81 e0       	ldi	r24, 0x01	; 1
     5f2:	6a 83       	std	Y+2, r22	; 0x02
     5f4:	7b 83       	std	Y+3, r23	; 0x03
     5f6:	99 83       	std	Y+1, r25	; 0x01
     5f8:	0e 94 75 02 	call	0x4ea	; 0x4ea <sendChar>
     5fc:	80 e8       	ldi	r24, 0x80	; 128
     5fe:	0e 94 75 02 	call	0x4ea	; 0x4ea <sendChar>
     602:	99 81       	ldd	r25, Y+1	; 0x01
     604:	9f 93       	push	r25
     606:	1f 93       	push	r17
     608:	04 e4       	ldi	r16, 0x44	; 68
     60a:	11 e0       	ldi	r17, 0x01	; 1
     60c:	1f 93       	push	r17
     60e:	0f 93       	push	r16
     610:	9e eb       	ldi	r25, 0xBE	; 190
     612:	e9 2e       	mov	r14, r25
     614:	94 e1       	ldi	r25, 0x14	; 20
     616:	f9 2e       	mov	r15, r25
     618:	ff 92       	push	r15
     61a:	ef 92       	push	r14
     61c:	0e 94 87 09 	call	0x130e	; 0x130e <avrSerialxPrintf_P>
     620:	80 ec       	ldi	r24, 0xC0	; 192
     622:	0e 94 75 02 	call	0x4ea	; 0x4ea <sendChar>
     626:	7b 81       	ldd	r23, Y+3	; 0x03
     628:	7f 93       	push	r23
     62a:	6a 81       	ldd	r22, Y+2	; 0x02
     62c:	6f 93       	push	r22
     62e:	1f 93       	push	r17
     630:	0f 93       	push	r16
     632:	ff 92       	push	r15
     634:	ef 92       	push	r14
     636:	0e 94 87 09 	call	0x130e	; 0x130e <avrSerialxPrintf_P>
     63a:	c7 01       	movw	r24, r14
     63c:	0e 94 78 06 	call	0xcf0	; 0xcf0 <xSerialFlush>
     640:	0f b6       	in	r0, 0x3f	; 63
     642:	f8 94       	cli
     644:	de bf       	out	0x3e, r29	; 62
     646:	0f be       	out	0x3f, r0	; 63
     648:	cd bf       	out	0x3d, r28	; 61
     64a:	23 96       	adiw	r28, 0x03	; 3
     64c:	e6 e0       	ldi	r30, 0x06	; 6
     64e:	0c 94 ba 27 	jmp	0x4f74	; 0x4f74 <__epilogue_restores__+0x18>

00000652 <main>:
     652:	0e 94 9d 02 	call	0x53a	; 0x53a <initLCD>
     656:	0e 94 3f 14 	call	0x287e	; 0x287e <vTaskStartScheduler>
     65a:	80 e0       	ldi	r24, 0x00	; 0
     65c:	90 e0       	ldi	r25, 0x00	; 0
     65e:	08 95       	ret

00000660 <vApplicationStackOverflowHook>:
     660:	27 9a       	sbi	0x04, 7	; 4
     662:	2f 9a       	sbi	0x05, 7	; 5
     664:	ff cf       	rjmp	.-2      	; 0x664 <vApplicationStackOverflowHook+0x4>

00000666 <xSerialPrint>:
     666:	0f 93       	push	r16
     668:	1f 93       	push	r17
     66a:	cf 93       	push	r28
     66c:	df 93       	push	r29
     66e:	ec 01       	movw	r28, r24
     670:	09 90       	ld	r0, Y+
     672:	00 20       	and	r0, r0
     674:	e9 f7       	brne	.-6      	; 0x670 <xSerialPrint+0xa>
     676:	8e 01       	movw	r16, r28
     678:	dc 01       	movw	r26, r24
     67a:	01 50       	subi	r16, 0x01	; 1
     67c:	11 09       	sbc	r17, r1
     67e:	4c ec       	ldi	r20, 0xCC	; 204
     680:	54 e1       	ldi	r21, 0x14	; 20
     682:	a0 17       	cp	r26, r16
     684:	b1 07       	cpc	r27, r17
     686:	09 f4       	brne	.+2      	; 0x68a <xSerialPrint+0x24>
     688:	3f c0       	rjmp	.+126    	; 0x708 <xSerialPrint+0xa2>
     68a:	6d 91       	ld	r22, X+
     68c:	0f b6       	in	r0, 0x3f	; 63
     68e:	f8 94       	cli
     690:	0f 92       	push	r0
     692:	20 91 cc 14 	lds	r18, 0x14CC
     696:	30 91 cd 14 	lds	r19, 0x14CD
     69a:	0f 90       	pop	r0
     69c:	0f be       	out	0x3f, r0	; 63
     69e:	80 91 d6 14 	lds	r24, 0x14D6
     6a2:	90 91 d7 14 	lds	r25, 0x14D7
     6a6:	28 17       	cp	r18, r24
     6a8:	39 07       	cpc	r19, r25
     6aa:	c9 f1       	breq	.+114    	; 0x71e <xSerialPrint+0xb8>
     6ac:	fa 01       	movw	r30, r20
     6ae:	82 81       	ldd	r24, Z+2	; 0x02
     6b0:	93 81       	ldd	r25, Z+3	; 0x03
     6b2:	ec 01       	movw	r28, r24
     6b4:	68 83       	st	Y, r22
     6b6:	0f b6       	in	r0, 0x3f	; 63
     6b8:	f8 94       	cli
     6ba:	0f 92       	push	r0
     6bc:	22 81       	ldd	r18, Z+2	; 0x02
     6be:	33 81       	ldd	r19, Z+3	; 0x03
     6c0:	2f 5f       	subi	r18, 0xFF	; 255
     6c2:	3f 4f       	sbci	r19, 0xFF	; 255
     6c4:	33 83       	std	Z+3, r19	; 0x03
     6c6:	22 83       	std	Z+2, r18	; 0x02
     6c8:	80 85       	ldd	r24, Z+8	; 0x08
     6ca:	91 85       	ldd	r25, Z+9	; 0x09
     6cc:	28 17       	cp	r18, r24
     6ce:	39 07       	cpc	r19, r25
     6d0:	09 f4       	brne	.+2      	; 0x6d4 <xSerialPrint+0x6e>
     6d2:	60 c0       	rjmp	.+192    	; 0x794 <xSerialPrint+0x12e>
     6d4:	20 81       	ld	r18, Z
     6d6:	31 81       	ldd	r19, Z+1	; 0x01
     6d8:	2f 5f       	subi	r18, 0xFF	; 255
     6da:	3f 4f       	sbci	r19, 0xFF	; 255
     6dc:	31 83       	std	Z+1, r19	; 0x01
     6de:	20 83       	st	Z, r18
     6e0:	0f 90       	pop	r0
     6e2:	0f be       	out	0x3f, r0	; 63
     6e4:	80 91 be 14 	lds	r24, 0x14BE
     6e8:	90 91 bf 14 	lds	r25, 0x14BF
     6ec:	00 97       	sbiw	r24, 0x00	; 0
     6ee:	89 f0       	breq	.+34     	; 0x712 <xSerialPrint+0xac>
     6f0:	01 97       	sbiw	r24, 0x01	; 1
     6f2:	09 f0       	breq	.+2      	; 0x6f6 <xSerialPrint+0x90>
     6f4:	c6 cf       	rjmp	.-116    	; 0x682 <xSerialPrint+0x1c>
     6f6:	80 91 c9 00 	lds	r24, 0x00C9
     6fa:	80 62       	ori	r24, 0x20	; 32
     6fc:	80 93 c9 00 	sts	0x00C9, r24
     700:	a0 17       	cp	r26, r16
     702:	b1 07       	cpc	r27, r17
     704:	09 f0       	breq	.+2      	; 0x708 <xSerialPrint+0xa2>
     706:	c1 cf       	rjmp	.-126    	; 0x68a <xSerialPrint+0x24>
     708:	df 91       	pop	r29
     70a:	cf 91       	pop	r28
     70c:	1f 91       	pop	r17
     70e:	0f 91       	pop	r16
     710:	08 95       	ret
     712:	80 91 c1 00 	lds	r24, 0x00C1
     716:	80 62       	ori	r24, 0x20	; 32
     718:	80 93 c1 00 	sts	0x00C1, r24
     71c:	b2 cf       	rjmp	.-156    	; 0x682 <xSerialPrint+0x1c>
     71e:	d5 e8       	ldi	r29, 0x85	; 133
     720:	da 95       	dec	r29
     722:	f1 f7       	brne	.-4      	; 0x720 <xSerialPrint+0xba>
     724:	00 00       	nop
     726:	e5 e8       	ldi	r30, 0x85	; 133
     728:	ea 95       	dec	r30
     72a:	f1 f7       	brne	.-4      	; 0x728 <xSerialPrint+0xc2>
     72c:	00 00       	nop
     72e:	f5 e8       	ldi	r31, 0x85	; 133
     730:	fa 95       	dec	r31
     732:	f1 f7       	brne	.-4      	; 0x730 <xSerialPrint+0xca>
     734:	00 00       	nop
     736:	85 e8       	ldi	r24, 0x85	; 133
     738:	8a 95       	dec	r24
     73a:	f1 f7       	brne	.-4      	; 0x738 <xSerialPrint+0xd2>
     73c:	00 00       	nop
     73e:	0f b6       	in	r0, 0x3f	; 63
     740:	f8 94       	cli
     742:	0f 92       	push	r0
     744:	20 91 cc 14 	lds	r18, 0x14CC
     748:	30 91 cd 14 	lds	r19, 0x14CD
     74c:	0f 90       	pop	r0
     74e:	0f be       	out	0x3f, r0	; 63
     750:	80 91 d6 14 	lds	r24, 0x14D6
     754:	90 91 d7 14 	lds	r25, 0x14D7
     758:	28 17       	cp	r18, r24
     75a:	39 07       	cpc	r19, r25
     75c:	09 f4       	brne	.+2      	; 0x760 <xSerialPrint+0xfa>
     75e:	91 cf       	rjmp	.-222    	; 0x682 <xSerialPrint+0x1c>
     760:	fa 01       	movw	r30, r20
     762:	82 81       	ldd	r24, Z+2	; 0x02
     764:	93 81       	ldd	r25, Z+3	; 0x03
     766:	ec 01       	movw	r28, r24
     768:	68 83       	st	Y, r22
     76a:	0f b6       	in	r0, 0x3f	; 63
     76c:	f8 94       	cli
     76e:	0f 92       	push	r0
     770:	82 81       	ldd	r24, Z+2	; 0x02
     772:	93 81       	ldd	r25, Z+3	; 0x03
     774:	01 96       	adiw	r24, 0x01	; 1
     776:	93 83       	std	Z+3, r25	; 0x03
     778:	82 83       	std	Z+2, r24	; 0x02
     77a:	20 85       	ldd	r18, Z+8	; 0x08
     77c:	31 85       	ldd	r19, Z+9	; 0x09
     77e:	82 17       	cp	r24, r18
     780:	93 07       	cpc	r25, r19
     782:	69 f0       	breq	.+26     	; 0x79e <xSerialPrint+0x138>
     784:	80 81       	ld	r24, Z
     786:	91 81       	ldd	r25, Z+1	; 0x01
     788:	01 96       	adiw	r24, 0x01	; 1
     78a:	91 83       	std	Z+1, r25	; 0x01
     78c:	80 83       	st	Z, r24
     78e:	0f 90       	pop	r0
     790:	0f be       	out	0x3f, r0	; 63
     792:	a8 cf       	rjmp	.-176    	; 0x6e4 <xSerialPrint+0x7e>
     794:	86 81       	ldd	r24, Z+6	; 0x06
     796:	97 81       	ldd	r25, Z+7	; 0x07
     798:	93 83       	std	Z+3, r25	; 0x03
     79a:	82 83       	std	Z+2, r24	; 0x02
     79c:	9b cf       	rjmp	.-202    	; 0x6d4 <xSerialPrint+0x6e>
     79e:	86 81       	ldd	r24, Z+6	; 0x06
     7a0:	97 81       	ldd	r25, Z+7	; 0x07
     7a2:	93 83       	std	Z+3, r25	; 0x03
     7a4:	82 83       	std	Z+2, r24	; 0x02
     7a6:	ee cf       	rjmp	.-36     	; 0x784 <xSerialPrint+0x11e>

000007a8 <xSerialPrintf>:
     7a8:	a0 e0       	ldi	r26, 0x00	; 0
     7aa:	b0 e0       	ldi	r27, 0x00	; 0
     7ac:	ea ed       	ldi	r30, 0xDA	; 218
     7ae:	f3 e0       	ldi	r31, 0x03	; 3
     7b0:	0c 94 a0 27 	jmp	0x4f40	; 0x4f40 <__prologue_saves__+0x1c>
     7b4:	8e 01       	movw	r16, r28
     7b6:	08 5f       	subi	r16, 0xF8	; 248
     7b8:	1f 4f       	sbci	r17, 0xFF	; 255
     7ba:	f8 01       	movw	r30, r16
     7bc:	81 91       	ld	r24, Z+
     7be:	91 91       	ld	r25, Z+
     7c0:	8f 01       	movw	r16, r30
     7c2:	80 91 dc 14 	lds	r24, 0x14DC
     7c6:	90 91 dd 14 	lds	r25, 0x14DD
     7ca:	01 97       	sbiw	r24, 0x01	; 1
     7cc:	41 f4       	brne	.+16     	; 0x7de <xSerialPrintf+0x36>
     7ce:	0e 94 f7 25 	call	0x4bee	; 0x4bee <vPortYield>
     7d2:	80 91 dc 14 	lds	r24, 0x14DC
     7d6:	90 91 dd 14 	lds	r25, 0x14DD
     7da:	01 97       	sbiw	r24, 0x01	; 1
     7dc:	c1 f3       	breq	.-16     	; 0x7ce <xSerialPrintf+0x26>
     7de:	81 e0       	ldi	r24, 0x01	; 1
     7e0:	90 e0       	ldi	r25, 0x00	; 0
     7e2:	90 93 dd 14 	sts	0x14DD, r25
     7e6:	80 93 dc 14 	sts	0x14DC, r24
     7ea:	60 91 da 14 	lds	r22, 0x14DA
     7ee:	70 91 db 14 	lds	r23, 0x14DB
     7f2:	98 01       	movw	r18, r16
     7f4:	48 85       	ldd	r20, Y+8	; 0x08
     7f6:	59 85       	ldd	r21, Y+9	; 0x09
     7f8:	80 91 d8 14 	lds	r24, 0x14D8
     7fc:	90 91 d9 14 	lds	r25, 0x14D9
     800:	0e 94 08 28 	call	0x5010	; 0x5010 <vsnprintf>
     804:	80 91 d8 14 	lds	r24, 0x14D8
     808:	90 91 d9 14 	lds	r25, 0x14D9
     80c:	0e 94 33 03 	call	0x666	; 0x666 <xSerialPrint>
     810:	10 92 dd 14 	sts	0x14DD, r1
     814:	10 92 dc 14 	sts	0x14DC, r1
     818:	e4 e0       	ldi	r30, 0x04	; 4
     81a:	0c 94 bc 27 	jmp	0x4f78	; 0x4f78 <__epilogue_restores__+0x1c>

0000081e <xSerialPrintf_P>:
     81e:	a0 e0       	ldi	r26, 0x00	; 0
     820:	b0 e0       	ldi	r27, 0x00	; 0
     822:	e5 e1       	ldi	r30, 0x15	; 21
     824:	f4 e0       	ldi	r31, 0x04	; 4
     826:	0c 94 a0 27 	jmp	0x4f40	; 0x4f40 <__prologue_saves__+0x1c>
     82a:	8e 01       	movw	r16, r28
     82c:	08 5f       	subi	r16, 0xF8	; 248
     82e:	1f 4f       	sbci	r17, 0xFF	; 255
     830:	f8 01       	movw	r30, r16
     832:	81 91       	ld	r24, Z+
     834:	91 91       	ld	r25, Z+
     836:	8f 01       	movw	r16, r30
     838:	80 91 dc 14 	lds	r24, 0x14DC
     83c:	90 91 dd 14 	lds	r25, 0x14DD
     840:	01 97       	sbiw	r24, 0x01	; 1
     842:	41 f4       	brne	.+16     	; 0x854 <xSerialPrintf_P+0x36>
     844:	0e 94 f7 25 	call	0x4bee	; 0x4bee <vPortYield>
     848:	80 91 dc 14 	lds	r24, 0x14DC
     84c:	90 91 dd 14 	lds	r25, 0x14DD
     850:	01 97       	sbiw	r24, 0x01	; 1
     852:	c1 f3       	breq	.-16     	; 0x844 <xSerialPrintf_P+0x26>
     854:	81 e0       	ldi	r24, 0x01	; 1
     856:	90 e0       	ldi	r25, 0x00	; 0
     858:	90 93 dd 14 	sts	0x14DD, r25
     85c:	80 93 dc 14 	sts	0x14DC, r24
     860:	60 91 da 14 	lds	r22, 0x14DA
     864:	70 91 db 14 	lds	r23, 0x14DB
     868:	98 01       	movw	r18, r16
     86a:	48 85       	ldd	r20, Y+8	; 0x08
     86c:	59 85       	ldd	r21, Y+9	; 0x09
     86e:	80 91 d8 14 	lds	r24, 0x14D8
     872:	90 91 d9 14 	lds	r25, 0x14D9
     876:	0e 94 41 28 	call	0x5082	; 0x5082 <vsnprintf_P>
     87a:	80 91 d8 14 	lds	r24, 0x14D8
     87e:	90 91 d9 14 	lds	r25, 0x14D9
     882:	0e 94 33 03 	call	0x666	; 0x666 <xSerialPrint>
     886:	10 92 dd 14 	sts	0x14DD, r1
     88a:	10 92 dc 14 	sts	0x14DC, r1
     88e:	e4 e0       	ldi	r30, 0x04	; 4
     890:	0c 94 bc 27 	jmp	0x4f78	; 0x4f78 <__epilogue_restores__+0x1c>

00000894 <xSerialPrint_P>:
     894:	1f 93       	push	r17
     896:	cf 93       	push	r28
     898:	df 93       	push	r29
     89a:	d8 2f       	mov	r29, r24
     89c:	c9 2f       	mov	r28, r25
     89e:	0e 94 c9 27 	call	0x4f92	; 0x4f92 <__strlen_P>
     8a2:	00 97       	sbiw	r24, 0x00	; 0
     8a4:	09 f4       	brne	.+2      	; 0x8a8 <xSerialPrint_P+0x14>
     8a6:	51 c0       	rjmp	.+162    	; 0x94a <xSerialPrint_P+0xb6>
     8a8:	ed 2f       	mov	r30, r29
     8aa:	fc 2f       	mov	r31, r28
     8ac:	8e 0f       	add	r24, r30
     8ae:	9f 1f       	adc	r25, r31
     8b0:	6c ec       	ldi	r22, 0xCC	; 204
     8b2:	74 e1       	ldi	r23, 0x14	; 20
     8b4:	0d c0       	rjmp	.+26     	; 0x8d0 <xSerialPrint_P+0x3c>
     8b6:	21 30       	cpi	r18, 0x01	; 1
     8b8:	31 05       	cpc	r19, r1
     8ba:	29 f4       	brne	.+10     	; 0x8c6 <xSerialPrint_P+0x32>
     8bc:	20 91 c9 00 	lds	r18, 0x00C9
     8c0:	20 62       	ori	r18, 0x20	; 32
     8c2:	20 93 c9 00 	sts	0x00C9, r18
     8c6:	31 96       	adiw	r30, 0x01	; 1
     8c8:	e8 17       	cp	r30, r24
     8ca:	f9 07       	cpc	r31, r25
     8cc:	09 f4       	brne	.+2      	; 0x8d0 <xSerialPrint_P+0x3c>
     8ce:	3d c0       	rjmp	.+122    	; 0x94a <xSerialPrint_P+0xb6>
     8d0:	14 91       	lpm	r17, Z
     8d2:	0f b6       	in	r0, 0x3f	; 63
     8d4:	f8 94       	cli
     8d6:	0f 92       	push	r0
     8d8:	40 91 cc 14 	lds	r20, 0x14CC
     8dc:	50 91 cd 14 	lds	r21, 0x14CD
     8e0:	0f 90       	pop	r0
     8e2:	0f be       	out	0x3f, r0	; 63
     8e4:	20 91 d6 14 	lds	r18, 0x14D6
     8e8:	30 91 d7 14 	lds	r19, 0x14D7
     8ec:	42 17       	cp	r20, r18
     8ee:	53 07       	cpc	r21, r19
     8f0:	a9 f1       	breq	.+106    	; 0x95c <xSerialPrint_P+0xc8>
     8f2:	eb 01       	movw	r28, r22
     8f4:	aa 81       	ldd	r26, Y+2	; 0x02
     8f6:	bb 81       	ldd	r27, Y+3	; 0x03
     8f8:	1c 93       	st	X, r17
     8fa:	0f b6       	in	r0, 0x3f	; 63
     8fc:	f8 94       	cli
     8fe:	0f 92       	push	r0
     900:	2a 81       	ldd	r18, Y+2	; 0x02
     902:	3b 81       	ldd	r19, Y+3	; 0x03
     904:	2f 5f       	subi	r18, 0xFF	; 255
     906:	3f 4f       	sbci	r19, 0xFF	; 255
     908:	3b 83       	std	Y+3, r19	; 0x03
     90a:	2a 83       	std	Y+2, r18	; 0x02
     90c:	48 85       	ldd	r20, Y+8	; 0x08
     90e:	59 85       	ldd	r21, Y+9	; 0x09
     910:	24 17       	cp	r18, r20
     912:	35 07       	cpc	r19, r21
     914:	f1 f0       	breq	.+60     	; 0x952 <xSerialPrint_P+0xbe>
     916:	28 81       	ld	r18, Y
     918:	39 81       	ldd	r19, Y+1	; 0x01
     91a:	2f 5f       	subi	r18, 0xFF	; 255
     91c:	3f 4f       	sbci	r19, 0xFF	; 255
     91e:	39 83       	std	Y+1, r19	; 0x01
     920:	28 83       	st	Y, r18
     922:	0f 90       	pop	r0
     924:	0f be       	out	0x3f, r0	; 63
     926:	20 91 be 14 	lds	r18, 0x14BE
     92a:	30 91 bf 14 	lds	r19, 0x14BF
     92e:	21 15       	cp	r18, r1
     930:	31 05       	cpc	r19, r1
     932:	09 f0       	breq	.+2      	; 0x936 <xSerialPrint_P+0xa2>
     934:	c0 cf       	rjmp	.-128    	; 0x8b6 <xSerialPrint_P+0x22>
     936:	20 91 c1 00 	lds	r18, 0x00C1
     93a:	20 62       	ori	r18, 0x20	; 32
     93c:	20 93 c1 00 	sts	0x00C1, r18
     940:	31 96       	adiw	r30, 0x01	; 1
     942:	e8 17       	cp	r30, r24
     944:	f9 07       	cpc	r31, r25
     946:	09 f0       	breq	.+2      	; 0x94a <xSerialPrint_P+0xb6>
     948:	c3 cf       	rjmp	.-122    	; 0x8d0 <xSerialPrint_P+0x3c>
     94a:	df 91       	pop	r29
     94c:	cf 91       	pop	r28
     94e:	1f 91       	pop	r17
     950:	08 95       	ret
     952:	2e 81       	ldd	r18, Y+6	; 0x06
     954:	3f 81       	ldd	r19, Y+7	; 0x07
     956:	3b 83       	std	Y+3, r19	; 0x03
     958:	2a 83       	std	Y+2, r18	; 0x02
     95a:	dd cf       	rjmp	.-70     	; 0x916 <xSerialPrint_P+0x82>
     95c:	25 e8       	ldi	r18, 0x85	; 133
     95e:	2a 95       	dec	r18
     960:	f1 f7       	brne	.-4      	; 0x95e <xSerialPrint_P+0xca>
     962:	00 00       	nop
     964:	25 e8       	ldi	r18, 0x85	; 133
     966:	2a 95       	dec	r18
     968:	f1 f7       	brne	.-4      	; 0x966 <xSerialPrint_P+0xd2>
     96a:	00 00       	nop
     96c:	25 e8       	ldi	r18, 0x85	; 133
     96e:	2a 95       	dec	r18
     970:	f1 f7       	brne	.-4      	; 0x96e <xSerialPrint_P+0xda>
     972:	00 00       	nop
     974:	25 e8       	ldi	r18, 0x85	; 133
     976:	2a 95       	dec	r18
     978:	f1 f7       	brne	.-4      	; 0x976 <xSerialPrint_P+0xe2>
     97a:	00 00       	nop
     97c:	0f b6       	in	r0, 0x3f	; 63
     97e:	f8 94       	cli
     980:	0f 92       	push	r0
     982:	40 91 cc 14 	lds	r20, 0x14CC
     986:	50 91 cd 14 	lds	r21, 0x14CD
     98a:	0f 90       	pop	r0
     98c:	0f be       	out	0x3f, r0	; 63
     98e:	20 91 d6 14 	lds	r18, 0x14D6
     992:	30 91 d7 14 	lds	r19, 0x14D7
     996:	42 17       	cp	r20, r18
     998:	53 07       	cpc	r21, r19
     99a:	09 f0       	breq	.+2      	; 0x99e <xSerialPrint_P+0x10a>
     99c:	aa cf       	rjmp	.-172    	; 0x8f2 <xSerialPrint_P+0x5e>
     99e:	93 cf       	rjmp	.-218    	; 0x8c6 <xSerialPrint_P+0x32>

000009a0 <xSerialxPrint>:
     9a0:	ef 92       	push	r14
     9a2:	ff 92       	push	r15
     9a4:	1f 93       	push	r17
     9a6:	cf 93       	push	r28
     9a8:	df 93       	push	r29
     9aa:	dc 01       	movw	r26, r24
     9ac:	eb 01       	movw	r28, r22
     9ae:	09 90       	ld	r0, Y+
     9b0:	00 20       	and	r0, r0
     9b2:	e9 f7       	brne	.-6      	; 0x9ae <xSerialxPrint+0xe>
     9b4:	ae 01       	movw	r20, r28
     9b6:	7b 01       	movw	r14, r22
     9b8:	41 50       	subi	r20, 0x01	; 1
     9ba:	51 09       	sbc	r21, r1
     9bc:	bc 01       	movw	r22, r24
     9be:	62 5f       	subi	r22, 0xF2	; 242
     9c0:	7f 4f       	sbci	r23, 0xFF	; 255
     9c2:	e4 16       	cp	r14, r20
     9c4:	f5 06       	cpc	r15, r21
     9c6:	09 f4       	brne	.+2      	; 0x9ca <xSerialxPrint+0x2a>
     9c8:	40 c0       	rjmp	.+128    	; 0xa4a <xSerialxPrint+0xaa>
     9ca:	f7 01       	movw	r30, r14
     9cc:	11 91       	ld	r17, Z+
     9ce:	7f 01       	movw	r14, r30
     9d0:	0f b6       	in	r0, 0x3f	; 63
     9d2:	f8 94       	cli
     9d4:	0f 92       	push	r0
     9d6:	1e 96       	adiw	r26, 0x0e	; 14
     9d8:	2d 91       	ld	r18, X+
     9da:	3c 91       	ld	r19, X
     9dc:	1f 97       	sbiw	r26, 0x0f	; 15
     9de:	0f 90       	pop	r0
     9e0:	0f be       	out	0x3f, r0	; 63
     9e2:	58 96       	adiw	r26, 0x18	; 24
     9e4:	8d 91       	ld	r24, X+
     9e6:	9c 91       	ld	r25, X
     9e8:	59 97       	sbiw	r26, 0x19	; 25
     9ea:	28 17       	cp	r18, r24
     9ec:	39 07       	cpc	r19, r25
     9ee:	c9 f1       	breq	.+114    	; 0xa62 <xSerialxPrint+0xc2>
     9f0:	fb 01       	movw	r30, r22
     9f2:	82 81       	ldd	r24, Z+2	; 0x02
     9f4:	93 81       	ldd	r25, Z+3	; 0x03
     9f6:	ec 01       	movw	r28, r24
     9f8:	18 83       	st	Y, r17
     9fa:	0f b6       	in	r0, 0x3f	; 63
     9fc:	f8 94       	cli
     9fe:	0f 92       	push	r0
     a00:	22 81       	ldd	r18, Z+2	; 0x02
     a02:	33 81       	ldd	r19, Z+3	; 0x03
     a04:	2f 5f       	subi	r18, 0xFF	; 255
     a06:	3f 4f       	sbci	r19, 0xFF	; 255
     a08:	33 83       	std	Z+3, r19	; 0x03
     a0a:	22 83       	std	Z+2, r18	; 0x02
     a0c:	80 85       	ldd	r24, Z+8	; 0x08
     a0e:	91 85       	ldd	r25, Z+9	; 0x09
     a10:	28 17       	cp	r18, r24
     a12:	39 07       	cpc	r19, r25
     a14:	09 f4       	brne	.+2      	; 0xa18 <xSerialxPrint+0x78>
     a16:	60 c0       	rjmp	.+192    	; 0xad8 <xSerialxPrint+0x138>
     a18:	20 81       	ld	r18, Z
     a1a:	31 81       	ldd	r19, Z+1	; 0x01
     a1c:	2f 5f       	subi	r18, 0xFF	; 255
     a1e:	3f 4f       	sbci	r19, 0xFF	; 255
     a20:	31 83       	std	Z+1, r19	; 0x01
     a22:	20 83       	st	Z, r18
     a24:	0f 90       	pop	r0
     a26:	0f be       	out	0x3f, r0	; 63
     a28:	8d 91       	ld	r24, X+
     a2a:	9c 91       	ld	r25, X
     a2c:	11 97       	sbiw	r26, 0x01	; 1
     a2e:	00 97       	sbiw	r24, 0x00	; 0
     a30:	91 f0       	breq	.+36     	; 0xa56 <xSerialxPrint+0xb6>
     a32:	01 97       	sbiw	r24, 0x01	; 1
     a34:	09 f0       	breq	.+2      	; 0xa38 <xSerialxPrint+0x98>
     a36:	c5 cf       	rjmp	.-118    	; 0x9c2 <xSerialxPrint+0x22>
     a38:	80 91 c9 00 	lds	r24, 0x00C9
     a3c:	80 62       	ori	r24, 0x20	; 32
     a3e:	80 93 c9 00 	sts	0x00C9, r24
     a42:	e4 16       	cp	r14, r20
     a44:	f5 06       	cpc	r15, r21
     a46:	09 f0       	breq	.+2      	; 0xa4a <xSerialxPrint+0xaa>
     a48:	c0 cf       	rjmp	.-128    	; 0x9ca <xSerialxPrint+0x2a>
     a4a:	df 91       	pop	r29
     a4c:	cf 91       	pop	r28
     a4e:	1f 91       	pop	r17
     a50:	ff 90       	pop	r15
     a52:	ef 90       	pop	r14
     a54:	08 95       	ret
     a56:	80 91 c1 00 	lds	r24, 0x00C1
     a5a:	80 62       	ori	r24, 0x20	; 32
     a5c:	80 93 c1 00 	sts	0x00C1, r24
     a60:	b0 cf       	rjmp	.-160    	; 0x9c2 <xSerialxPrint+0x22>
     a62:	d5 e8       	ldi	r29, 0x85	; 133
     a64:	da 95       	dec	r29
     a66:	f1 f7       	brne	.-4      	; 0xa64 <xSerialxPrint+0xc4>
     a68:	00 00       	nop
     a6a:	e5 e8       	ldi	r30, 0x85	; 133
     a6c:	ea 95       	dec	r30
     a6e:	f1 f7       	brne	.-4      	; 0xa6c <xSerialxPrint+0xcc>
     a70:	00 00       	nop
     a72:	f5 e8       	ldi	r31, 0x85	; 133
     a74:	fa 95       	dec	r31
     a76:	f1 f7       	brne	.-4      	; 0xa74 <xSerialxPrint+0xd4>
     a78:	00 00       	nop
     a7a:	85 e8       	ldi	r24, 0x85	; 133
     a7c:	8a 95       	dec	r24
     a7e:	f1 f7       	brne	.-4      	; 0xa7c <xSerialxPrint+0xdc>
     a80:	00 00       	nop
     a82:	0f b6       	in	r0, 0x3f	; 63
     a84:	f8 94       	cli
     a86:	0f 92       	push	r0
     a88:	1e 96       	adiw	r26, 0x0e	; 14
     a8a:	2d 91       	ld	r18, X+
     a8c:	3c 91       	ld	r19, X
     a8e:	1f 97       	sbiw	r26, 0x0f	; 15
     a90:	0f 90       	pop	r0
     a92:	0f be       	out	0x3f, r0	; 63
     a94:	58 96       	adiw	r26, 0x18	; 24
     a96:	8d 91       	ld	r24, X+
     a98:	9c 91       	ld	r25, X
     a9a:	59 97       	sbiw	r26, 0x19	; 25
     a9c:	28 17       	cp	r18, r24
     a9e:	39 07       	cpc	r19, r25
     aa0:	09 f4       	brne	.+2      	; 0xaa4 <xSerialxPrint+0x104>
     aa2:	8f cf       	rjmp	.-226    	; 0x9c2 <xSerialxPrint+0x22>
     aa4:	fb 01       	movw	r30, r22
     aa6:	82 81       	ldd	r24, Z+2	; 0x02
     aa8:	93 81       	ldd	r25, Z+3	; 0x03
     aaa:	ec 01       	movw	r28, r24
     aac:	18 83       	st	Y, r17
     aae:	0f b6       	in	r0, 0x3f	; 63
     ab0:	f8 94       	cli
     ab2:	0f 92       	push	r0
     ab4:	82 81       	ldd	r24, Z+2	; 0x02
     ab6:	93 81       	ldd	r25, Z+3	; 0x03
     ab8:	01 96       	adiw	r24, 0x01	; 1
     aba:	93 83       	std	Z+3, r25	; 0x03
     abc:	82 83       	std	Z+2, r24	; 0x02
     abe:	20 85       	ldd	r18, Z+8	; 0x08
     ac0:	31 85       	ldd	r19, Z+9	; 0x09
     ac2:	82 17       	cp	r24, r18
     ac4:	93 07       	cpc	r25, r19
     ac6:	69 f0       	breq	.+26     	; 0xae2 <xSerialxPrint+0x142>
     ac8:	80 81       	ld	r24, Z
     aca:	91 81       	ldd	r25, Z+1	; 0x01
     acc:	01 96       	adiw	r24, 0x01	; 1
     ace:	91 83       	std	Z+1, r25	; 0x01
     ad0:	80 83       	st	Z, r24
     ad2:	0f 90       	pop	r0
     ad4:	0f be       	out	0x3f, r0	; 63
     ad6:	a8 cf       	rjmp	.-176    	; 0xa28 <xSerialxPrint+0x88>
     ad8:	86 81       	ldd	r24, Z+6	; 0x06
     ada:	97 81       	ldd	r25, Z+7	; 0x07
     adc:	93 83       	std	Z+3, r25	; 0x03
     ade:	82 83       	std	Z+2, r24	; 0x02
     ae0:	9b cf       	rjmp	.-202    	; 0xa18 <xSerialxPrint+0x78>
     ae2:	86 81       	ldd	r24, Z+6	; 0x06
     ae4:	97 81       	ldd	r25, Z+7	; 0x07
     ae6:	93 83       	std	Z+3, r25	; 0x03
     ae8:	82 83       	std	Z+2, r24	; 0x02
     aea:	ee cf       	rjmp	.-36     	; 0xac8 <xSerialxPrint+0x128>

00000aec <xSerialxPrintf>:
     aec:	a0 e0       	ldi	r26, 0x00	; 0
     aee:	b0 e0       	ldi	r27, 0x00	; 0
     af0:	ec e7       	ldi	r30, 0x7C	; 124
     af2:	f5 e0       	ldi	r31, 0x05	; 5
     af4:	0c 94 a0 27 	jmp	0x4f40	; 0x4f40 <__prologue_saves__+0x1c>
     af8:	08 85       	ldd	r16, Y+8	; 0x08
     afa:	19 85       	ldd	r17, Y+9	; 0x09
     afc:	f8 01       	movw	r30, r16
     afe:	86 8d       	ldd	r24, Z+30	; 0x1e
     b00:	97 8d       	ldd	r25, Z+31	; 0x1f
     b02:	01 97       	sbiw	r24, 0x01	; 1
     b04:	41 f4       	brne	.+16     	; 0xb16 <xSerialxPrintf+0x2a>
     b06:	0e 94 f7 25 	call	0x4bee	; 0x4bee <vPortYield>
     b0a:	f8 01       	movw	r30, r16
     b0c:	26 8d       	ldd	r18, Z+30	; 0x1e
     b0e:	37 8d       	ldd	r19, Z+31	; 0x1f
     b10:	21 30       	cpi	r18, 0x01	; 1
     b12:	31 05       	cpc	r19, r1
     b14:	c1 f3       	breq	.-16     	; 0xb06 <xSerialxPrintf+0x1a>
     b16:	81 e0       	ldi	r24, 0x01	; 1
     b18:	90 e0       	ldi	r25, 0x00	; 0
     b1a:	f8 01       	movw	r30, r16
     b1c:	97 8f       	std	Z+31, r25	; 0x1f
     b1e:	86 8f       	std	Z+30, r24	; 0x1e
     b20:	64 8d       	ldd	r22, Z+28	; 0x1c
     b22:	75 8d       	ldd	r23, Z+29	; 0x1d
     b24:	9e 01       	movw	r18, r28
     b26:	24 5f       	subi	r18, 0xF4	; 244
     b28:	3f 4f       	sbci	r19, 0xFF	; 255
     b2a:	4a 85       	ldd	r20, Y+10	; 0x0a
     b2c:	5b 85       	ldd	r21, Y+11	; 0x0b
     b2e:	82 8d       	ldd	r24, Z+26	; 0x1a
     b30:	93 8d       	ldd	r25, Z+27	; 0x1b
     b32:	0e 94 08 28 	call	0x5010	; 0x5010 <vsnprintf>
     b36:	f8 01       	movw	r30, r16
     b38:	62 8d       	ldd	r22, Z+26	; 0x1a
     b3a:	73 8d       	ldd	r23, Z+27	; 0x1b
     b3c:	c8 01       	movw	r24, r16
     b3e:	0e 94 d0 04 	call	0x9a0	; 0x9a0 <xSerialxPrint>
     b42:	f8 01       	movw	r30, r16
     b44:	17 8e       	std	Z+31, r1	; 0x1f
     b46:	16 8e       	std	Z+30, r1	; 0x1e
     b48:	e4 e0       	ldi	r30, 0x04	; 4
     b4a:	0c 94 bc 27 	jmp	0x4f78	; 0x4f78 <__epilogue_restores__+0x1c>

00000b4e <xSerialxPrintf_P>:
     b4e:	a0 e0       	ldi	r26, 0x00	; 0
     b50:	b0 e0       	ldi	r27, 0x00	; 0
     b52:	ed ea       	ldi	r30, 0xAD	; 173
     b54:	f5 e0       	ldi	r31, 0x05	; 5
     b56:	0c 94 a0 27 	jmp	0x4f40	; 0x4f40 <__prologue_saves__+0x1c>
     b5a:	08 85       	ldd	r16, Y+8	; 0x08
     b5c:	19 85       	ldd	r17, Y+9	; 0x09
     b5e:	f8 01       	movw	r30, r16
     b60:	86 8d       	ldd	r24, Z+30	; 0x1e
     b62:	97 8d       	ldd	r25, Z+31	; 0x1f
     b64:	01 97       	sbiw	r24, 0x01	; 1
     b66:	41 f4       	brne	.+16     	; 0xb78 <xSerialxPrintf_P+0x2a>
     b68:	0e 94 f7 25 	call	0x4bee	; 0x4bee <vPortYield>
     b6c:	f8 01       	movw	r30, r16
     b6e:	26 8d       	ldd	r18, Z+30	; 0x1e
     b70:	37 8d       	ldd	r19, Z+31	; 0x1f
     b72:	21 30       	cpi	r18, 0x01	; 1
     b74:	31 05       	cpc	r19, r1
     b76:	c1 f3       	breq	.-16     	; 0xb68 <xSerialxPrintf_P+0x1a>
     b78:	81 e0       	ldi	r24, 0x01	; 1
     b7a:	90 e0       	ldi	r25, 0x00	; 0
     b7c:	f8 01       	movw	r30, r16
     b7e:	97 8f       	std	Z+31, r25	; 0x1f
     b80:	86 8f       	std	Z+30, r24	; 0x1e
     b82:	64 8d       	ldd	r22, Z+28	; 0x1c
     b84:	75 8d       	ldd	r23, Z+29	; 0x1d
     b86:	9e 01       	movw	r18, r28
     b88:	24 5f       	subi	r18, 0xF4	; 244
     b8a:	3f 4f       	sbci	r19, 0xFF	; 255
     b8c:	4a 85       	ldd	r20, Y+10	; 0x0a
     b8e:	5b 85       	ldd	r21, Y+11	; 0x0b
     b90:	82 8d       	ldd	r24, Z+26	; 0x1a
     b92:	93 8d       	ldd	r25, Z+27	; 0x1b
     b94:	0e 94 41 28 	call	0x5082	; 0x5082 <vsnprintf_P>
     b98:	f8 01       	movw	r30, r16
     b9a:	62 8d       	ldd	r22, Z+26	; 0x1a
     b9c:	73 8d       	ldd	r23, Z+27	; 0x1b
     b9e:	c8 01       	movw	r24, r16
     ba0:	0e 94 d0 04 	call	0x9a0	; 0x9a0 <xSerialxPrint>
     ba4:	f8 01       	movw	r30, r16
     ba6:	17 8e       	std	Z+31, r1	; 0x1f
     ba8:	16 8e       	std	Z+30, r1	; 0x1e
     baa:	e4 e0       	ldi	r30, 0x04	; 4
     bac:	0c 94 bc 27 	jmp	0x4f78	; 0x4f78 <__epilogue_restores__+0x1c>

00000bb0 <xSerialxPrint_P>:
     bb0:	af 92       	push	r10
     bb2:	bf 92       	push	r11
     bb4:	cf 92       	push	r12
     bb6:	df 92       	push	r13
     bb8:	ff 92       	push	r15
     bba:	0f 93       	push	r16
     bbc:	1f 93       	push	r17
     bbe:	cf 93       	push	r28
     bc0:	df 93       	push	r29
     bc2:	1f 92       	push	r1
     bc4:	1f 92       	push	r1
     bc6:	cd b7       	in	r28, 0x3d	; 61
     bc8:	de b7       	in	r29, 0x3e	; 62
     bca:	8c 01       	movw	r16, r24
     bcc:	cb 01       	movw	r24, r22
     bce:	69 83       	std	Y+1, r22	; 0x01
     bd0:	7a 83       	std	Y+2, r23	; 0x02
     bd2:	0e 94 c9 27 	call	0x4f92	; 0x4f92 <__strlen_P>
     bd6:	69 81       	ldd	r22, Y+1	; 0x01
     bd8:	7a 81       	ldd	r23, Y+2	; 0x02
     bda:	00 97       	sbiw	r24, 0x00	; 0
     bdc:	09 f4       	brne	.+2      	; 0xbe0 <xSerialxPrint_P+0x30>
     bde:	58 c0       	rjmp	.+176    	; 0xc90 <xSerialxPrint_P+0xe0>
     be0:	5b 01       	movw	r10, r22
     be2:	8a 0d       	add	r24, r10
     be4:	9b 1d       	adc	r25, r11
     be6:	a8 01       	movw	r20, r16
     be8:	42 5f       	subi	r20, 0xF2	; 242
     bea:	5f 4f       	sbci	r21, 0xFF	; 255
     bec:	0f c0       	rjmp	.+30     	; 0xc0c <xSerialxPrint_P+0x5c>
     bee:	21 30       	cpi	r18, 0x01	; 1
     bf0:	31 05       	cpc	r19, r1
     bf2:	29 f4       	brne	.+10     	; 0xbfe <xSerialxPrint_P+0x4e>
     bf4:	20 91 c9 00 	lds	r18, 0x00C9
     bf8:	20 62       	ori	r18, 0x20	; 32
     bfa:	20 93 c9 00 	sts	0x00C9, r18
     bfe:	bf ef       	ldi	r27, 0xFF	; 255
     c00:	ab 1a       	sub	r10, r27
     c02:	bb 0a       	sbc	r11, r27
     c04:	a8 16       	cp	r10, r24
     c06:	b9 06       	cpc	r11, r25
     c08:	09 f4       	brne	.+2      	; 0xc0c <xSerialxPrint_P+0x5c>
     c0a:	42 c0       	rjmp	.+132    	; 0xc90 <xSerialxPrint_P+0xe0>
     c0c:	f5 01       	movw	r30, r10
     c0e:	f4 90       	lpm	r15, Z
     c10:	0f b6       	in	r0, 0x3f	; 63
     c12:	f8 94       	cli
     c14:	0f 92       	push	r0
     c16:	d8 01       	movw	r26, r16
     c18:	1e 96       	adiw	r26, 0x0e	; 14
     c1a:	6d 91       	ld	r22, X+
     c1c:	7c 91       	ld	r23, X
     c1e:	1f 97       	sbiw	r26, 0x0f	; 15
     c20:	0f 90       	pop	r0
     c22:	0f be       	out	0x3f, r0	; 63
     c24:	f8 01       	movw	r30, r16
     c26:	20 8d       	ldd	r18, Z+24	; 0x18
     c28:	31 8d       	ldd	r19, Z+25	; 0x19
     c2a:	62 17       	cp	r22, r18
     c2c:	73 07       	cpc	r23, r19
     c2e:	09 f4       	brne	.+2      	; 0xc32 <xSerialxPrint_P+0x82>
     c30:	40 c0       	rjmp	.+128    	; 0xcb2 <xSerialxPrint_P+0x102>
     c32:	fa 01       	movw	r30, r20
     c34:	6f 01       	movw	r12, r30
     c36:	a2 81       	ldd	r26, Z+2	; 0x02
     c38:	b3 81       	ldd	r27, Z+3	; 0x03
     c3a:	fc 92       	st	X, r15
     c3c:	0f b6       	in	r0, 0x3f	; 63
     c3e:	f8 94       	cli
     c40:	0f 92       	push	r0
     c42:	22 81       	ldd	r18, Z+2	; 0x02
     c44:	33 81       	ldd	r19, Z+3	; 0x03
     c46:	2f 5f       	subi	r18, 0xFF	; 255
     c48:	3f 4f       	sbci	r19, 0xFF	; 255
     c4a:	33 83       	std	Z+3, r19	; 0x03
     c4c:	22 83       	std	Z+2, r18	; 0x02
     c4e:	60 85       	ldd	r22, Z+8	; 0x08
     c50:	71 85       	ldd	r23, Z+9	; 0x09
     c52:	26 17       	cp	r18, r22
     c54:	37 07       	cpc	r19, r23
     c56:	41 f1       	breq	.+80     	; 0xca8 <xSerialxPrint_P+0xf8>
     c58:	f6 01       	movw	r30, r12
     c5a:	20 81       	ld	r18, Z
     c5c:	31 81       	ldd	r19, Z+1	; 0x01
     c5e:	2f 5f       	subi	r18, 0xFF	; 255
     c60:	3f 4f       	sbci	r19, 0xFF	; 255
     c62:	31 83       	std	Z+1, r19	; 0x01
     c64:	20 83       	st	Z, r18
     c66:	0f 90       	pop	r0
     c68:	0f be       	out	0x3f, r0	; 63
     c6a:	d8 01       	movw	r26, r16
     c6c:	2d 91       	ld	r18, X+
     c6e:	3c 91       	ld	r19, X
     c70:	21 15       	cp	r18, r1
     c72:	31 05       	cpc	r19, r1
     c74:	09 f0       	breq	.+2      	; 0xc78 <xSerialxPrint_P+0xc8>
     c76:	bb cf       	rjmp	.-138    	; 0xbee <xSerialxPrint_P+0x3e>
     c78:	20 91 c1 00 	lds	r18, 0x00C1
     c7c:	20 62       	ori	r18, 0x20	; 32
     c7e:	20 93 c1 00 	sts	0x00C1, r18
     c82:	bf ef       	ldi	r27, 0xFF	; 255
     c84:	ab 1a       	sub	r10, r27
     c86:	bb 0a       	sbc	r11, r27
     c88:	a8 16       	cp	r10, r24
     c8a:	b9 06       	cpc	r11, r25
     c8c:	09 f0       	breq	.+2      	; 0xc90 <xSerialxPrint_P+0xe0>
     c8e:	be cf       	rjmp	.-132    	; 0xc0c <xSerialxPrint_P+0x5c>
     c90:	0f 90       	pop	r0
     c92:	0f 90       	pop	r0
     c94:	df 91       	pop	r29
     c96:	cf 91       	pop	r28
     c98:	1f 91       	pop	r17
     c9a:	0f 91       	pop	r16
     c9c:	ff 90       	pop	r15
     c9e:	df 90       	pop	r13
     ca0:	cf 90       	pop	r12
     ca2:	bf 90       	pop	r11
     ca4:	af 90       	pop	r10
     ca6:	08 95       	ret
     ca8:	26 81       	ldd	r18, Z+6	; 0x06
     caa:	37 81       	ldd	r19, Z+7	; 0x07
     cac:	33 83       	std	Z+3, r19	; 0x03
     cae:	22 83       	std	Z+2, r18	; 0x02
     cb0:	d3 cf       	rjmp	.-90     	; 0xc58 <xSerialxPrint_P+0xa8>
     cb2:	f5 e8       	ldi	r31, 0x85	; 133
     cb4:	fa 95       	dec	r31
     cb6:	f1 f7       	brne	.-4      	; 0xcb4 <xSerialxPrint_P+0x104>
     cb8:	00 00       	nop
     cba:	25 e8       	ldi	r18, 0x85	; 133
     cbc:	2a 95       	dec	r18
     cbe:	f1 f7       	brne	.-4      	; 0xcbc <xSerialxPrint_P+0x10c>
     cc0:	00 00       	nop
     cc2:	a5 e8       	ldi	r26, 0x85	; 133
     cc4:	aa 95       	dec	r26
     cc6:	f1 f7       	brne	.-4      	; 0xcc4 <xSerialxPrint_P+0x114>
     cc8:	00 00       	nop
     cca:	b5 e8       	ldi	r27, 0x85	; 133
     ccc:	ba 95       	dec	r27
     cce:	f1 f7       	brne	.-4      	; 0xccc <xSerialxPrint_P+0x11c>
     cd0:	00 00       	nop
     cd2:	0f b6       	in	r0, 0x3f	; 63
     cd4:	f8 94       	cli
     cd6:	0f 92       	push	r0
     cd8:	f8 01       	movw	r30, r16
     cda:	66 85       	ldd	r22, Z+14	; 0x0e
     cdc:	77 85       	ldd	r23, Z+15	; 0x0f
     cde:	0f 90       	pop	r0
     ce0:	0f be       	out	0x3f, r0	; 63
     ce2:	20 8d       	ldd	r18, Z+24	; 0x18
     ce4:	31 8d       	ldd	r19, Z+25	; 0x19
     ce6:	62 17       	cp	r22, r18
     ce8:	73 07       	cpc	r23, r19
     cea:	09 f0       	breq	.+2      	; 0xcee <xSerialxPrint_P+0x13e>
     cec:	a2 cf       	rjmp	.-188    	; 0xc32 <xSerialxPrint_P+0x82>
     cee:	87 cf       	rjmp	.-242    	; 0xbfe <xSerialxPrint_P+0x4e>

00000cf0 <xSerialFlush>:
     cf0:	fc 01       	movw	r30, r24
     cf2:	80 81       	ld	r24, Z
     cf4:	91 81       	ldd	r25, Z+1	; 0x01
     cf6:	00 97       	sbiw	r24, 0x00	; 0
     cf8:	b9 f0       	breq	.+46     	; 0xd28 <xSerialFlush+0x38>
     cfa:	01 97       	sbiw	r24, 0x01	; 1
     cfc:	81 f0       	breq	.+32     	; 0xd1e <xSerialFlush+0x2e>
     cfe:	0f b6       	in	r0, 0x3f	; 63
     d00:	f8 94       	cli
     d02:	0f 92       	push	r0
     d04:	13 82       	std	Z+3, r1	; 0x03
     d06:	12 82       	std	Z+2, r1	; 0x02
     d08:	80 85       	ldd	r24, Z+8	; 0x08
     d0a:	91 85       	ldd	r25, Z+9	; 0x09
     d0c:	95 83       	std	Z+5, r25	; 0x05
     d0e:	84 83       	std	Z+4, r24	; 0x04
     d10:	97 83       	std	Z+7, r25	; 0x07
     d12:	86 83       	std	Z+6, r24	; 0x06
     d14:	0f 90       	pop	r0
     d16:	0f be       	out	0x3f, r0	; 63
     d18:	08 95       	ret
     d1a:	80 91 ce 00 	lds	r24, 0x00CE
     d1e:	80 91 c8 00 	lds	r24, 0x00C8
     d22:	87 fd       	sbrc	r24, 7
     d24:	fa cf       	rjmp	.-12     	; 0xd1a <xSerialFlush+0x2a>
     d26:	eb cf       	rjmp	.-42     	; 0xcfe <xSerialFlush+0xe>
     d28:	80 91 c0 00 	lds	r24, 0x00C0
     d2c:	87 ff       	sbrs	r24, 7
     d2e:	e7 cf       	rjmp	.-50     	; 0xcfe <xSerialFlush+0xe>
     d30:	80 91 c6 00 	lds	r24, 0x00C6
     d34:	80 91 c0 00 	lds	r24, 0x00C0
     d38:	87 fd       	sbrc	r24, 7
     d3a:	fa cf       	rjmp	.-12     	; 0xd30 <xSerialFlush+0x40>
     d3c:	e0 cf       	rjmp	.-64     	; 0xcfe <xSerialFlush+0xe>

00000d3e <xSerialAvailableChar>:
     d3e:	0f b6       	in	r0, 0x3f	; 63
     d40:	f8 94       	cli
     d42:	0f 92       	push	r0
     d44:	fc 01       	movw	r30, r24
     d46:	82 81       	ldd	r24, Z+2	; 0x02
     d48:	93 81       	ldd	r25, Z+3	; 0x03
     d4a:	0f 90       	pop	r0
     d4c:	0f be       	out	0x3f, r0	; 63
     d4e:	08 95       	ret

00000d50 <xSerialGetChar>:
     d50:	0f b6       	in	r0, 0x3f	; 63
     d52:	f8 94       	cli
     d54:	0f 92       	push	r0
     d56:	fc 01       	movw	r30, r24
     d58:	22 81       	ldd	r18, Z+2	; 0x02
     d5a:	33 81       	ldd	r19, Z+3	; 0x03
     d5c:	0f 90       	pop	r0
     d5e:	0f be       	out	0x3f, r0	; 63
     d60:	23 2b       	or	r18, r19
     d62:	c9 f0       	breq	.+50     	; 0xd96 <xSerialGetChar+0x46>
     d64:	32 96       	adiw	r30, 0x02	; 2
     d66:	a4 81       	ldd	r26, Z+4	; 0x04
     d68:	b5 81       	ldd	r27, Z+5	; 0x05
     d6a:	2d 91       	ld	r18, X+
     d6c:	0f b6       	in	r0, 0x3f	; 63
     d6e:	f8 94       	cli
     d70:	0f 92       	push	r0
     d72:	b5 83       	std	Z+5, r27	; 0x05
     d74:	a4 83       	std	Z+4, r26	; 0x04
     d76:	80 85       	ldd	r24, Z+8	; 0x08
     d78:	91 85       	ldd	r25, Z+9	; 0x09
     d7a:	a8 17       	cp	r26, r24
     d7c:	b9 07       	cpc	r27, r25
     d7e:	69 f0       	breq	.+26     	; 0xd9a <xSerialGetChar+0x4a>
     d80:	80 81       	ld	r24, Z
     d82:	91 81       	ldd	r25, Z+1	; 0x01
     d84:	01 97       	sbiw	r24, 0x01	; 1
     d86:	91 83       	std	Z+1, r25	; 0x01
     d88:	80 83       	st	Z, r24
     d8a:	0f 90       	pop	r0
     d8c:	0f be       	out	0x3f, r0	; 63
     d8e:	fb 01       	movw	r30, r22
     d90:	20 83       	st	Z, r18
     d92:	81 e0       	ldi	r24, 0x01	; 1
     d94:	08 95       	ret
     d96:	80 e0       	ldi	r24, 0x00	; 0
     d98:	08 95       	ret
     d9a:	86 81       	ldd	r24, Z+6	; 0x06
     d9c:	97 81       	ldd	r25, Z+7	; 0x07
     d9e:	95 83       	std	Z+5, r25	; 0x05
     da0:	84 83       	std	Z+4, r24	; 0x04
     da2:	ee cf       	rjmp	.-36     	; 0xd80 <xSerialGetChar+0x30>

00000da4 <xSerialPutChar>:
     da4:	cf 93       	push	r28
     da6:	df 93       	push	r29
     da8:	dc 01       	movw	r26, r24
     daa:	0f b6       	in	r0, 0x3f	; 63
     dac:	f8 94       	cli
     dae:	0f 92       	push	r0
     db0:	1e 96       	adiw	r26, 0x0e	; 14
     db2:	2d 91       	ld	r18, X+
     db4:	3c 91       	ld	r19, X
     db6:	1f 97       	sbiw	r26, 0x0f	; 15
     db8:	0f 90       	pop	r0
     dba:	0f be       	out	0x3f, r0	; 63
     dbc:	58 96       	adiw	r26, 0x18	; 24
     dbe:	8d 91       	ld	r24, X+
     dc0:	9c 91       	ld	r25, X
     dc2:	59 97       	sbiw	r26, 0x19	; 25
     dc4:	28 17       	cp	r18, r24
     dc6:	39 07       	cpc	r19, r25
     dc8:	09 f4       	brne	.+2      	; 0xdcc <xSerialPutChar+0x28>
     dca:	3a c0       	rjmp	.+116    	; 0xe40 <xSerialPutChar+0x9c>
     dcc:	fd 01       	movw	r30, r26
     dce:	3e 96       	adiw	r30, 0x0e	; 14
     dd0:	c2 81       	ldd	r28, Z+2	; 0x02
     dd2:	d3 81       	ldd	r29, Z+3	; 0x03
     dd4:	68 83       	st	Y, r22
     dd6:	0f b6       	in	r0, 0x3f	; 63
     dd8:	f8 94       	cli
     dda:	0f 92       	push	r0
     ddc:	82 81       	ldd	r24, Z+2	; 0x02
     dde:	93 81       	ldd	r25, Z+3	; 0x03
     de0:	01 96       	adiw	r24, 0x01	; 1
     de2:	93 83       	std	Z+3, r25	; 0x03
     de4:	82 83       	std	Z+2, r24	; 0x02
     de6:	20 85       	ldd	r18, Z+8	; 0x08
     de8:	31 85       	ldd	r19, Z+9	; 0x09
     dea:	82 17       	cp	r24, r18
     dec:	93 07       	cpc	r25, r19
     dee:	19 f1       	breq	.+70     	; 0xe36 <xSerialPutChar+0x92>
     df0:	80 81       	ld	r24, Z
     df2:	91 81       	ldd	r25, Z+1	; 0x01
     df4:	01 96       	adiw	r24, 0x01	; 1
     df6:	91 83       	std	Z+1, r25	; 0x01
     df8:	80 83       	st	Z, r24
     dfa:	0f 90       	pop	r0
     dfc:	0f be       	out	0x3f, r0	; 63
     dfe:	8d 91       	ld	r24, X+
     e00:	9c 91       	ld	r25, X
     e02:	00 97       	sbiw	r24, 0x00	; 0
     e04:	79 f0       	breq	.+30     	; 0xe24 <xSerialPutChar+0x80>
     e06:	01 97       	sbiw	r24, 0x01	; 1
     e08:	21 f0       	breq	.+8      	; 0xe12 <xSerialPutChar+0x6e>
     e0a:	81 e0       	ldi	r24, 0x01	; 1
     e0c:	df 91       	pop	r29
     e0e:	cf 91       	pop	r28
     e10:	08 95       	ret
     e12:	80 91 c9 00 	lds	r24, 0x00C9
     e16:	80 62       	ori	r24, 0x20	; 32
     e18:	80 93 c9 00 	sts	0x00C9, r24
     e1c:	81 e0       	ldi	r24, 0x01	; 1
     e1e:	df 91       	pop	r29
     e20:	cf 91       	pop	r28
     e22:	08 95       	ret
     e24:	80 91 c1 00 	lds	r24, 0x00C1
     e28:	80 62       	ori	r24, 0x20	; 32
     e2a:	80 93 c1 00 	sts	0x00C1, r24
     e2e:	81 e0       	ldi	r24, 0x01	; 1
     e30:	df 91       	pop	r29
     e32:	cf 91       	pop	r28
     e34:	08 95       	ret
     e36:	86 81       	ldd	r24, Z+6	; 0x06
     e38:	97 81       	ldd	r25, Z+7	; 0x07
     e3a:	93 83       	std	Z+3, r25	; 0x03
     e3c:	82 83       	std	Z+2, r24	; 0x02
     e3e:	d8 cf       	rjmp	.-80     	; 0xdf0 <xSerialPutChar+0x4c>
     e40:	85 e8       	ldi	r24, 0x85	; 133
     e42:	8a 95       	dec	r24
     e44:	f1 f7       	brne	.-4      	; 0xe42 <xSerialPutChar+0x9e>
     e46:	00 00       	nop
     e48:	85 e8       	ldi	r24, 0x85	; 133
     e4a:	8a 95       	dec	r24
     e4c:	f1 f7       	brne	.-4      	; 0xe4a <xSerialPutChar+0xa6>
     e4e:	00 00       	nop
     e50:	85 e8       	ldi	r24, 0x85	; 133
     e52:	8a 95       	dec	r24
     e54:	f1 f7       	brne	.-4      	; 0xe52 <xSerialPutChar+0xae>
     e56:	00 00       	nop
     e58:	85 e8       	ldi	r24, 0x85	; 133
     e5a:	8a 95       	dec	r24
     e5c:	f1 f7       	brne	.-4      	; 0xe5a <xSerialPutChar+0xb6>
     e5e:	00 00       	nop
     e60:	0f b6       	in	r0, 0x3f	; 63
     e62:	f8 94       	cli
     e64:	0f 92       	push	r0
     e66:	1e 96       	adiw	r26, 0x0e	; 14
     e68:	2d 91       	ld	r18, X+
     e6a:	3c 91       	ld	r19, X
     e6c:	1f 97       	sbiw	r26, 0x0f	; 15
     e6e:	0f 90       	pop	r0
     e70:	0f be       	out	0x3f, r0	; 63
     e72:	58 96       	adiw	r26, 0x18	; 24
     e74:	8d 91       	ld	r24, X+
     e76:	9c 91       	ld	r25, X
     e78:	59 97       	sbiw	r26, 0x19	; 25
     e7a:	28 17       	cp	r18, r24
     e7c:	39 07       	cpc	r19, r25
     e7e:	09 f0       	breq	.+2      	; 0xe82 <xSerialPutChar+0xde>
     e80:	a5 cf       	rjmp	.-182    	; 0xdcc <xSerialPutChar+0x28>
     e82:	80 e0       	ldi	r24, 0x00	; 0
     e84:	c3 cf       	rjmp	.-122    	; 0xe0c <xSerialPutChar+0x68>

00000e86 <xSerialPortInitMinimal>:
     e86:	a4 e2       	ldi	r26, 0x24	; 36
     e88:	b0 e0       	ldi	r27, 0x00	; 0
     e8a:	e9 e4       	ldi	r30, 0x49	; 73
     e8c:	f7 e0       	ldi	r31, 0x07	; 7
     e8e:	0c 94 9a 27 	jmp	0x4f34	; 0x4f34 <__prologue_saves__+0x10>
     e92:	5c 01       	movw	r10, r24
     e94:	6b 01       	movw	r12, r22
     e96:	c7 01       	movw	r24, r14
     e98:	29 a3       	std	Y+33, r18	; 0x21
     e9a:	3a a3       	std	Y+34, r19	; 0x22
     e9c:	4b a3       	std	Y+35, r20	; 0x23
     e9e:	5c a3       	std	Y+36, r21	; 0x24
     ea0:	0e 94 a4 0b 	call	0x1748	; 0x1748 <pvPortMalloc>
     ea4:	29 a1       	ldd	r18, Y+33	; 0x21
     ea6:	3a a1       	ldd	r19, Y+34	; 0x22
     ea8:	4b a1       	ldd	r20, Y+35	; 0x23
     eaa:	5c a1       	ldd	r21, Y+36	; 0x24
     eac:	00 97       	sbiw	r24, 0x00	; 0
     eae:	a9 f0       	breq	.+42     	; 0xeda <xSerialPortInitMinimal+0x54>
     eb0:	fe 01       	movw	r30, r28
     eb2:	33 96       	adiw	r30, 0x03	; 3
     eb4:	0f b6       	in	r0, 0x3f	; 63
     eb6:	f8 94       	cli
     eb8:	0f 92       	push	r0
     eba:	11 82       	std	Z+1, r1	; 0x01
     ebc:	10 82       	st	Z, r1
     ebe:	93 83       	std	Z+3, r25	; 0x03
     ec0:	82 83       	std	Z+2, r24	; 0x02
     ec2:	95 83       	std	Z+5, r25	; 0x05
     ec4:	84 83       	std	Z+4, r24	; 0x04
     ec6:	97 83       	std	Z+7, r25	; 0x07
     ec8:	86 83       	std	Z+6, r24	; 0x06
     eca:	8e 0d       	add	r24, r14
     ecc:	9f 1d       	adc	r25, r15
     ece:	91 87       	std	Z+9, r25	; 0x09
     ed0:	80 87       	std	Z+8, r24	; 0x08
     ed2:	f3 86       	std	Z+11, r15	; 0x0b
     ed4:	e2 86       	std	Z+10, r14	; 0x0a
     ed6:	0f 90       	pop	r0
     ed8:	0f be       	out	0x3f, r0	; 63
     eda:	c8 01       	movw	r24, r16
     edc:	29 a3       	std	Y+33, r18	; 0x21
     ede:	3a a3       	std	Y+34, r19	; 0x22
     ee0:	4b a3       	std	Y+35, r20	; 0x23
     ee2:	5c a3       	std	Y+36, r21	; 0x24
     ee4:	0e 94 a4 0b 	call	0x1748	; 0x1748 <pvPortMalloc>
     ee8:	29 a1       	ldd	r18, Y+33	; 0x21
     eea:	3a a1       	ldd	r19, Y+34	; 0x22
     eec:	4b a1       	ldd	r20, Y+35	; 0x23
     eee:	5c a1       	ldd	r21, Y+36	; 0x24
     ef0:	00 97       	sbiw	r24, 0x00	; 0
     ef2:	a9 f0       	breq	.+42     	; 0xf1e <xSerialPortInitMinimal+0x98>
     ef4:	fe 01       	movw	r30, r28
     ef6:	3f 96       	adiw	r30, 0x0f	; 15
     ef8:	0f b6       	in	r0, 0x3f	; 63
     efa:	f8 94       	cli
     efc:	0f 92       	push	r0
     efe:	11 82       	std	Z+1, r1	; 0x01
     f00:	10 82       	st	Z, r1
     f02:	93 83       	std	Z+3, r25	; 0x03
     f04:	82 83       	std	Z+2, r24	; 0x02
     f06:	95 83       	std	Z+5, r25	; 0x05
     f08:	84 83       	std	Z+4, r24	; 0x04
     f0a:	97 83       	std	Z+7, r25	; 0x07
     f0c:	86 83       	std	Z+6, r24	; 0x06
     f0e:	80 0f       	add	r24, r16
     f10:	91 1f       	adc	r25, r17
     f12:	91 87       	std	Z+9, r25	; 0x09
     f14:	80 87       	std	Z+8, r24	; 0x08
     f16:	13 87       	std	Z+11, r17	; 0x0b
     f18:	02 87       	std	Z+10, r16	; 0x0a
     f1a:	0f 90       	pop	r0
     f1c:	0f be       	out	0x3f, r0	; 63
     f1e:	c8 01       	movw	r24, r16
     f20:	29 a3       	std	Y+33, r18	; 0x21
     f22:	3a a3       	std	Y+34, r19	; 0x22
     f24:	4b a3       	std	Y+35, r20	; 0x23
     f26:	5c a3       	std	Y+36, r21	; 0x24
     f28:	0e 94 a4 0b 	call	0x1748	; 0x1748 <pvPortMalloc>
     f2c:	9c 8f       	std	Y+28, r25	; 0x1c
     f2e:	8b 8f       	std	Y+27, r24	; 0x1b
     f30:	da 82       	std	Y+2, r13	; 0x02
     f32:	c9 82       	std	Y+1, r12	; 0x01
     f34:	1e 8f       	std	Y+30, r17	; 0x1e
     f36:	0d 8f       	std	Y+29, r16	; 0x1d
     f38:	18 a2       	std	Y+32, r1	; 0x20
     f3a:	1f 8e       	std	Y+31, r1	; 0x1f
     f3c:	0f b6       	in	r0, 0x3f	; 63
     f3e:	f8 94       	cli
     f40:	0f 92       	push	r0
     f42:	29 a1       	ldd	r18, Y+33	; 0x21
     f44:	3a a1       	ldd	r19, Y+34	; 0x22
     f46:	4b a1       	ldd	r20, Y+35	; 0x23
     f48:	5c a1       	ldd	r21, Y+36	; 0x24
     f4a:	c1 14       	cp	r12, r1
     f4c:	d1 04       	cpc	r13, r1
     f4e:	09 f4       	brne	.+2      	; 0xf52 <xSerialPortInitMinimal+0xcc>
     f50:	3d c0       	rjmp	.+122    	; 0xfcc <xSerialPortInitMinimal+0x146>
     f52:	81 e0       	ldi	r24, 0x01	; 1
     f54:	c8 16       	cp	r12, r24
     f56:	d1 04       	cpc	r13, r1
     f58:	51 f5       	brne	.+84     	; 0xfae <xSerialPortInitMinimal+0x128>
     f5a:	ca 01       	movw	r24, r20
     f5c:	b9 01       	movw	r22, r18
     f5e:	77 5f       	subi	r23, 0xF7	; 247
     f60:	82 4c       	sbci	r24, 0xC2	; 194
     f62:	9f 4f       	sbci	r25, 0xFF	; 255
     f64:	66 0f       	add	r22, r22
     f66:	77 1f       	adc	r23, r23
     f68:	88 1f       	adc	r24, r24
     f6a:	99 1f       	adc	r25, r25
     f6c:	66 0f       	add	r22, r22
     f6e:	77 1f       	adc	r23, r23
     f70:	88 1f       	adc	r24, r24
     f72:	99 1f       	adc	r25, r25
     f74:	22 0f       	add	r18, r18
     f76:	33 1f       	adc	r19, r19
     f78:	44 1f       	adc	r20, r20
     f7a:	55 1f       	adc	r21, r21
     f7c:	22 0f       	add	r18, r18
     f7e:	33 1f       	adc	r19, r19
     f80:	44 1f       	adc	r20, r20
     f82:	55 1f       	adc	r21, r21
     f84:	22 0f       	add	r18, r18
     f86:	33 1f       	adc	r19, r19
     f88:	44 1f       	adc	r20, r20
     f8a:	55 1f       	adc	r21, r21
     f8c:	0e 94 70 27 	call	0x4ee0	; 0x4ee0 <__udivmodsi4>
     f90:	21 50       	subi	r18, 0x01	; 1
     f92:	31 09       	sbc	r19, r1
     f94:	30 93 cd 00 	sts	0x00CD, r19
     f98:	20 93 cc 00 	sts	0x00CC, r18
     f9c:	82 e0       	ldi	r24, 0x02	; 2
     f9e:	80 93 c8 00 	sts	0x00C8, r24
     fa2:	88 e9       	ldi	r24, 0x98	; 152
     fa4:	80 93 c9 00 	sts	0x00C9, r24
     fa8:	86 e0       	ldi	r24, 0x06	; 6
     faa:	80 93 ca 00 	sts	0x00CA, r24
     fae:	0f 90       	pop	r0
     fb0:	0f be       	out	0x3f, r0	; 63
     fb2:	80 e2       	ldi	r24, 0x20	; 32
     fb4:	fe 01       	movw	r30, r28
     fb6:	31 96       	adiw	r30, 0x01	; 1
     fb8:	d5 01       	movw	r26, r10
     fba:	01 90       	ld	r0, Z+
     fbc:	0d 92       	st	X+, r0
     fbe:	8a 95       	dec	r24
     fc0:	e1 f7       	brne	.-8      	; 0xfba <xSerialPortInitMinimal+0x134>
     fc2:	c5 01       	movw	r24, r10
     fc4:	a4 96       	adiw	r28, 0x24	; 36
     fc6:	ea e0       	ldi	r30, 0x0A	; 10
     fc8:	0c 94 b6 27 	jmp	0x4f6c	; 0x4f6c <__epilogue_restores__+0x10>
     fcc:	ca 01       	movw	r24, r20
     fce:	b9 01       	movw	r22, r18
     fd0:	77 5f       	subi	r23, 0xF7	; 247
     fd2:	82 4c       	sbci	r24, 0xC2	; 194
     fd4:	9f 4f       	sbci	r25, 0xFF	; 255
     fd6:	66 0f       	add	r22, r22
     fd8:	77 1f       	adc	r23, r23
     fda:	88 1f       	adc	r24, r24
     fdc:	99 1f       	adc	r25, r25
     fde:	66 0f       	add	r22, r22
     fe0:	77 1f       	adc	r23, r23
     fe2:	88 1f       	adc	r24, r24
     fe4:	99 1f       	adc	r25, r25
     fe6:	22 0f       	add	r18, r18
     fe8:	33 1f       	adc	r19, r19
     fea:	44 1f       	adc	r20, r20
     fec:	55 1f       	adc	r21, r21
     fee:	22 0f       	add	r18, r18
     ff0:	33 1f       	adc	r19, r19
     ff2:	44 1f       	adc	r20, r20
     ff4:	55 1f       	adc	r21, r21
     ff6:	22 0f       	add	r18, r18
     ff8:	33 1f       	adc	r19, r19
     ffa:	44 1f       	adc	r20, r20
     ffc:	55 1f       	adc	r21, r21
     ffe:	0e 94 70 27 	call	0x4ee0	; 0x4ee0 <__udivmodsi4>
    1002:	21 50       	subi	r18, 0x01	; 1
    1004:	31 09       	sbc	r19, r1
    1006:	30 93 c5 00 	sts	0x00C5, r19
    100a:	20 93 c4 00 	sts	0x00C4, r18
    100e:	82 e0       	ldi	r24, 0x02	; 2
    1010:	80 93 c0 00 	sts	0x00C0, r24
    1014:	88 e9       	ldi	r24, 0x98	; 152
    1016:	80 93 c1 00 	sts	0x00C1, r24
    101a:	86 e0       	ldi	r24, 0x06	; 6
    101c:	80 93 c2 00 	sts	0x00C2, r24
    1020:	c6 cf       	rjmp	.-116    	; 0xfae <xSerialPortInitMinimal+0x128>

00001022 <vSerialClose>:
    1022:	cf 93       	push	r28
    1024:	df 93       	push	r29
    1026:	ec 01       	movw	r28, r24
    1028:	8a 8d       	ldd	r24, Y+26	; 0x1a
    102a:	9b 8d       	ldd	r25, Y+27	; 0x1b
    102c:	0e 94 aa 0c 	call	0x1954	; 0x1954 <vPortFree>
    1030:	88 85       	ldd	r24, Y+8	; 0x08
    1032:	99 85       	ldd	r25, Y+9	; 0x09
    1034:	0e 94 aa 0c 	call	0x1954	; 0x1954 <vPortFree>
    1038:	8c 89       	ldd	r24, Y+20	; 0x14
    103a:	9d 89       	ldd	r25, Y+21	; 0x15
    103c:	0e 94 aa 0c 	call	0x1954	; 0x1954 <vPortFree>
    1040:	0f b6       	in	r0, 0x3f	; 63
    1042:	f8 94       	cli
    1044:	0f 92       	push	r0
    1046:	88 81       	ld	r24, Y
    1048:	99 81       	ldd	r25, Y+1	; 0x01
    104a:	00 97       	sbiw	r24, 0x00	; 0
    104c:	89 f0       	breq	.+34     	; 0x1070 <vSerialClose+0x4e>
    104e:	01 97       	sbiw	r24, 0x01	; 1
    1050:	51 f4       	brne	.+20     	; 0x1066 <vSerialClose+0x44>
    1052:	80 91 c9 00 	lds	r24, 0x00C9
    1056:	8f 7d       	andi	r24, 0xDF	; 223
    1058:	80 93 c9 00 	sts	0x00C9, r24
    105c:	80 91 c9 00 	lds	r24, 0x00C9
    1060:	8f 77       	andi	r24, 0x7F	; 127
    1062:	80 93 c9 00 	sts	0x00C9, r24
    1066:	0f 90       	pop	r0
    1068:	0f be       	out	0x3f, r0	; 63
    106a:	df 91       	pop	r29
    106c:	cf 91       	pop	r28
    106e:	08 95       	ret
    1070:	80 91 c1 00 	lds	r24, 0x00C1
    1074:	8f 7d       	andi	r24, 0xDF	; 223
    1076:	80 93 c1 00 	sts	0x00C1, r24
    107a:	80 91 c1 00 	lds	r24, 0x00C1
    107e:	8f 77       	andi	r24, 0x7F	; 127
    1080:	80 93 c1 00 	sts	0x00C1, r24
    1084:	0f 90       	pop	r0
    1086:	0f be       	out	0x3f, r0	; 63
    1088:	df 91       	pop	r29
    108a:	cf 91       	pop	r28
    108c:	08 95       	ret

0000108e <avrSerialPrint>:
    108e:	dc 01       	movw	r26, r24
    1090:	0d 90       	ld	r0, X+
    1092:	00 20       	and	r0, r0
    1094:	e9 f7       	brne	.-6      	; 0x1090 <avrSerialPrint+0x2>
    1096:	11 97       	sbiw	r26, 0x01	; 1
    1098:	a8 1b       	sub	r26, r24
    109a:	b9 0b       	sbc	r27, r25
    109c:	b1 f0       	breq	.+44     	; 0x10ca <avrSerialPrint+0x3c>
    109e:	fc 01       	movw	r30, r24
    10a0:	8a 0f       	add	r24, r26
    10a2:	9b 1f       	adc	r25, r27
    10a4:	31 91       	ld	r19, Z+
    10a6:	20 91 c0 00 	lds	r18, 0x00C0
    10aa:	25 fd       	sbrc	r18, 5
    10ac:	08 c0       	rjmp	.+16     	; 0x10be <avrSerialPrint+0x30>
    10ae:	25 e8       	ldi	r18, 0x85	; 133
    10b0:	2a 95       	dec	r18
    10b2:	f1 f7       	brne	.-4      	; 0x10b0 <avrSerialPrint+0x22>
    10b4:	00 00       	nop
    10b6:	20 91 c0 00 	lds	r18, 0x00C0
    10ba:	25 ff       	sbrs	r18, 5
    10bc:	f8 cf       	rjmp	.-16     	; 0x10ae <avrSerialPrint+0x20>
    10be:	30 93 c6 00 	sts	0x00C6, r19
    10c2:	e8 17       	cp	r30, r24
    10c4:	f9 07       	cpc	r31, r25
    10c6:	71 f7       	brne	.-36     	; 0x10a4 <avrSerialPrint+0x16>
    10c8:	08 95       	ret
    10ca:	08 95       	ret

000010cc <avrSerialPrintf>:
    10cc:	a0 e0       	ldi	r26, 0x00	; 0
    10ce:	b0 e0       	ldi	r27, 0x00	; 0
    10d0:	ec e6       	ldi	r30, 0x6C	; 108
    10d2:	f8 e0       	ldi	r31, 0x08	; 8
    10d4:	0c 94 a2 27 	jmp	0x4f44	; 0x4f44 <__prologue_saves__+0x20>
    10d8:	fe 01       	movw	r30, r28
    10da:	36 96       	adiw	r30, 0x06	; 6
    10dc:	41 91       	ld	r20, Z+
    10de:	51 91       	ld	r21, Z+
    10e0:	80 91 dc 14 	lds	r24, 0x14DC
    10e4:	90 91 dd 14 	lds	r25, 0x14DD
    10e8:	01 97       	sbiw	r24, 0x01	; 1
    10ea:	51 f4       	brne	.+20     	; 0x1100 <avrSerialPrintf+0x34>
    10ec:	85 e8       	ldi	r24, 0x85	; 133
    10ee:	8a 95       	dec	r24
    10f0:	f1 f7       	brne	.-4      	; 0x10ee <avrSerialPrintf+0x22>
    10f2:	00 00       	nop
    10f4:	80 91 dc 14 	lds	r24, 0x14DC
    10f8:	90 91 dd 14 	lds	r25, 0x14DD
    10fc:	01 97       	sbiw	r24, 0x01	; 1
    10fe:	b1 f3       	breq	.-20     	; 0x10ec <avrSerialPrintf+0x20>
    1100:	81 e0       	ldi	r24, 0x01	; 1
    1102:	90 e0       	ldi	r25, 0x00	; 0
    1104:	90 93 dd 14 	sts	0x14DD, r25
    1108:	80 93 dc 14 	sts	0x14DC, r24
    110c:	60 91 da 14 	lds	r22, 0x14DA
    1110:	70 91 db 14 	lds	r23, 0x14DB
    1114:	9f 01       	movw	r18, r30
    1116:	80 91 d8 14 	lds	r24, 0x14D8
    111a:	90 91 d9 14 	lds	r25, 0x14D9
    111e:	0e 94 08 28 	call	0x5010	; 0x5010 <vsnprintf>
    1122:	80 91 d8 14 	lds	r24, 0x14D8
    1126:	90 91 d9 14 	lds	r25, 0x14D9
    112a:	0e 94 47 08 	call	0x108e	; 0x108e <avrSerialPrint>
    112e:	10 92 dd 14 	sts	0x14DD, r1
    1132:	10 92 dc 14 	sts	0x14DC, r1
    1136:	e2 e0       	ldi	r30, 0x02	; 2
    1138:	0c 94 be 27 	jmp	0x4f7c	; 0x4f7c <__epilogue_restores__+0x20>

0000113c <avrSerialPrintf_P>:
    113c:	a0 e0       	ldi	r26, 0x00	; 0
    113e:	b0 e0       	ldi	r27, 0x00	; 0
    1140:	e4 ea       	ldi	r30, 0xA4	; 164
    1142:	f8 e0       	ldi	r31, 0x08	; 8
    1144:	0c 94 a2 27 	jmp	0x4f44	; 0x4f44 <__prologue_saves__+0x20>
    1148:	fe 01       	movw	r30, r28
    114a:	36 96       	adiw	r30, 0x06	; 6
    114c:	41 91       	ld	r20, Z+
    114e:	51 91       	ld	r21, Z+
    1150:	80 91 dc 14 	lds	r24, 0x14DC
    1154:	90 91 dd 14 	lds	r25, 0x14DD
    1158:	01 97       	sbiw	r24, 0x01	; 1
    115a:	51 f4       	brne	.+20     	; 0x1170 <avrSerialPrintf_P+0x34>
    115c:	85 e8       	ldi	r24, 0x85	; 133
    115e:	8a 95       	dec	r24
    1160:	f1 f7       	brne	.-4      	; 0x115e <avrSerialPrintf_P+0x22>
    1162:	00 00       	nop
    1164:	80 91 dc 14 	lds	r24, 0x14DC
    1168:	90 91 dd 14 	lds	r25, 0x14DD
    116c:	01 97       	sbiw	r24, 0x01	; 1
    116e:	b1 f3       	breq	.-20     	; 0x115c <avrSerialPrintf_P+0x20>
    1170:	81 e0       	ldi	r24, 0x01	; 1
    1172:	90 e0       	ldi	r25, 0x00	; 0
    1174:	90 93 dd 14 	sts	0x14DD, r25
    1178:	80 93 dc 14 	sts	0x14DC, r24
    117c:	60 91 da 14 	lds	r22, 0x14DA
    1180:	70 91 db 14 	lds	r23, 0x14DB
    1184:	9f 01       	movw	r18, r30
    1186:	80 91 d8 14 	lds	r24, 0x14D8
    118a:	90 91 d9 14 	lds	r25, 0x14D9
    118e:	0e 94 41 28 	call	0x5082	; 0x5082 <vsnprintf_P>
    1192:	80 91 d8 14 	lds	r24, 0x14D8
    1196:	90 91 d9 14 	lds	r25, 0x14D9
    119a:	0e 94 47 08 	call	0x108e	; 0x108e <avrSerialPrint>
    119e:	10 92 dd 14 	sts	0x14DD, r1
    11a2:	10 92 dc 14 	sts	0x14DC, r1
    11a6:	e2 e0       	ldi	r30, 0x02	; 2
    11a8:	0c 94 be 27 	jmp	0x4f7c	; 0x4f7c <__epilogue_restores__+0x20>

000011ac <avrSerialPrint_P>:
    11ac:	cf 93       	push	r28
    11ae:	df 93       	push	r29
    11b0:	d8 2f       	mov	r29, r24
    11b2:	c9 2f       	mov	r28, r25
    11b4:	0e 94 c9 27 	call	0x4f92	; 0x4f92 <__strlen_P>
    11b8:	00 97       	sbiw	r24, 0x00	; 0
    11ba:	b9 f0       	breq	.+46     	; 0x11ea <avrSerialPrint_P+0x3e>
    11bc:	ed 2f       	mov	r30, r29
    11be:	fc 2f       	mov	r31, r28
    11c0:	8e 0f       	add	r24, r30
    11c2:	9f 1f       	adc	r25, r31
    11c4:	34 91       	lpm	r19, Z
    11c6:	20 91 c0 00 	lds	r18, 0x00C0
    11ca:	25 fd       	sbrc	r18, 5
    11cc:	08 c0       	rjmp	.+16     	; 0x11de <avrSerialPrint_P+0x32>
    11ce:	25 e8       	ldi	r18, 0x85	; 133
    11d0:	2a 95       	dec	r18
    11d2:	f1 f7       	brne	.-4      	; 0x11d0 <avrSerialPrint_P+0x24>
    11d4:	00 00       	nop
    11d6:	20 91 c0 00 	lds	r18, 0x00C0
    11da:	25 ff       	sbrs	r18, 5
    11dc:	f8 cf       	rjmp	.-16     	; 0x11ce <avrSerialPrint_P+0x22>
    11de:	30 93 c6 00 	sts	0x00C6, r19
    11e2:	31 96       	adiw	r30, 0x01	; 1
    11e4:	e8 17       	cp	r30, r24
    11e6:	f9 07       	cpc	r31, r25
    11e8:	69 f7       	brne	.-38     	; 0x11c4 <avrSerialPrint_P+0x18>
    11ea:	df 91       	pop	r29
    11ec:	cf 91       	pop	r28
    11ee:	08 95       	ret

000011f0 <avrSerialWrite>:
    11f0:	04 c0       	rjmp	.+8      	; 0x11fa <avrSerialWrite+0xa>
    11f2:	95 e8       	ldi	r25, 0x85	; 133
    11f4:	9a 95       	dec	r25
    11f6:	f1 f7       	brne	.-4      	; 0x11f4 <avrSerialWrite+0x4>
    11f8:	00 00       	nop
    11fa:	90 91 c0 00 	lds	r25, 0x00C0
    11fe:	95 ff       	sbrs	r25, 5
    1200:	f8 cf       	rjmp	.-16     	; 0x11f2 <avrSerialWrite+0x2>
    1202:	80 93 c6 00 	sts	0x00C6, r24
    1206:	08 95       	ret

00001208 <avrSerialRead>:
    1208:	04 c0       	rjmp	.+8      	; 0x1212 <avrSerialRead+0xa>
    120a:	85 e8       	ldi	r24, 0x85	; 133
    120c:	8a 95       	dec	r24
    120e:	f1 f7       	brne	.-4      	; 0x120c <avrSerialRead+0x4>
    1210:	00 00       	nop
    1212:	80 91 c0 00 	lds	r24, 0x00C0
    1216:	87 ff       	sbrs	r24, 7
    1218:	f8 cf       	rjmp	.-16     	; 0x120a <avrSerialRead+0x2>
    121a:	80 91 c0 00 	lds	r24, 0x00C0
    121e:	8c 71       	andi	r24, 0x1C	; 28
    1220:	19 f4       	brne	.+6      	; 0x1228 <avrSerialRead+0x20>
    1222:	80 91 c6 00 	lds	r24, 0x00C6
    1226:	08 95       	ret
    1228:	8f ef       	ldi	r24, 0xFF	; 255
    122a:	08 95       	ret

0000122c <avrSerialCheckRxComplete>:
    122c:	80 91 c0 00 	lds	r24, 0x00C0
    1230:	80 78       	andi	r24, 0x80	; 128
    1232:	08 95       	ret

00001234 <avrSerialCheckTxReady>:
    1234:	80 91 c0 00 	lds	r24, 0x00C0
    1238:	80 72       	andi	r24, 0x20	; 32
    123a:	08 95       	ret

0000123c <avrSerialxPrint>:
    123c:	cf 93       	push	r28
    123e:	df 93       	push	r29
    1240:	fc 01       	movw	r30, r24
    1242:	eb 01       	movw	r28, r22
    1244:	09 90       	ld	r0, Y+
    1246:	00 20       	and	r0, r0
    1248:	e9 f7       	brne	.-6      	; 0x1244 <avrSerialxPrint+0x8>
    124a:	21 97       	sbiw	r28, 0x01	; 1
    124c:	c6 1b       	sub	r28, r22
    124e:	d7 0b       	sbc	r29, r23
    1250:	29 f1       	breq	.+74     	; 0x129c <avrSerialxPrint+0x60>
    1252:	db 01       	movw	r26, r22
    1254:	cb 01       	movw	r24, r22
    1256:	8c 0f       	add	r24, r28
    1258:	9d 1f       	adc	r25, r29
    125a:	5d 91       	ld	r21, X+
    125c:	0b c0       	rjmp	.+22     	; 0x1274 <avrSerialxPrint+0x38>
    125e:	21 30       	cpi	r18, 0x01	; 1
    1260:	31 05       	cpc	r19, r1
    1262:	21 f4       	brne	.+8      	; 0x126c <avrSerialxPrint+0x30>
    1264:	40 91 c8 00 	lds	r20, 0x00C8
    1268:	40 72       	andi	r20, 0x20	; 32
    126a:	69 f4       	brne	.+26     	; 0x1286 <avrSerialxPrint+0x4a>
    126c:	25 e8       	ldi	r18, 0x85	; 133
    126e:	2a 95       	dec	r18
    1270:	f1 f7       	brne	.-4      	; 0x126e <avrSerialxPrint+0x32>
    1272:	00 00       	nop
    1274:	20 81       	ld	r18, Z
    1276:	31 81       	ldd	r19, Z+1	; 0x01
    1278:	21 15       	cp	r18, r1
    127a:	31 05       	cpc	r19, r1
    127c:	81 f7       	brne	.-32     	; 0x125e <avrSerialxPrint+0x22>
    127e:	40 91 c0 00 	lds	r20, 0x00C0
    1282:	40 72       	andi	r20, 0x20	; 32
    1284:	99 f3       	breq	.-26     	; 0x126c <avrSerialxPrint+0x30>
    1286:	21 15       	cp	r18, r1
    1288:	31 05       	cpc	r19, r1
    128a:	59 f0       	breq	.+22     	; 0x12a2 <avrSerialxPrint+0x66>
    128c:	21 30       	cpi	r18, 0x01	; 1
    128e:	31 05       	cpc	r19, r1
    1290:	11 f4       	brne	.+4      	; 0x1296 <avrSerialxPrint+0x5a>
    1292:	50 93 ce 00 	sts	0x00CE, r21
    1296:	a8 17       	cp	r26, r24
    1298:	b9 07       	cpc	r27, r25
    129a:	f9 f6       	brne	.-66     	; 0x125a <avrSerialxPrint+0x1e>
    129c:	df 91       	pop	r29
    129e:	cf 91       	pop	r28
    12a0:	08 95       	ret
    12a2:	50 93 c6 00 	sts	0x00C6, r21
    12a6:	f7 cf       	rjmp	.-18     	; 0x1296 <avrSerialxPrint+0x5a>

000012a8 <avrSerialxPrintf>:
    12a8:	a0 e0       	ldi	r26, 0x00	; 0
    12aa:	b0 e0       	ldi	r27, 0x00	; 0
    12ac:	ea e5       	ldi	r30, 0x5A	; 90
    12ae:	f9 e0       	ldi	r31, 0x09	; 9
    12b0:	0c 94 a0 27 	jmp	0x4f40	; 0x4f40 <__prologue_saves__+0x1c>
    12b4:	08 85       	ldd	r16, Y+8	; 0x08
    12b6:	19 85       	ldd	r17, Y+9	; 0x09
    12b8:	f8 01       	movw	r30, r16
    12ba:	86 8d       	ldd	r24, Z+30	; 0x1e
    12bc:	97 8d       	ldd	r25, Z+31	; 0x1f
    12be:	01 97       	sbiw	r24, 0x01	; 1
    12c0:	51 f4       	brne	.+20     	; 0x12d6 <avrSerialxPrintf+0x2e>
    12c2:	f5 e8       	ldi	r31, 0x85	; 133
    12c4:	fa 95       	dec	r31
    12c6:	f1 f7       	brne	.-4      	; 0x12c4 <avrSerialxPrintf+0x1c>
    12c8:	00 00       	nop
    12ca:	f8 01       	movw	r30, r16
    12cc:	26 8d       	ldd	r18, Z+30	; 0x1e
    12ce:	37 8d       	ldd	r19, Z+31	; 0x1f
    12d0:	21 30       	cpi	r18, 0x01	; 1
    12d2:	31 05       	cpc	r19, r1
    12d4:	b1 f3       	breq	.-20     	; 0x12c2 <avrSerialxPrintf+0x1a>
    12d6:	81 e0       	ldi	r24, 0x01	; 1
    12d8:	90 e0       	ldi	r25, 0x00	; 0
    12da:	f8 01       	movw	r30, r16
    12dc:	97 8f       	std	Z+31, r25	; 0x1f
    12de:	86 8f       	std	Z+30, r24	; 0x1e
    12e0:	64 8d       	ldd	r22, Z+28	; 0x1c
    12e2:	75 8d       	ldd	r23, Z+29	; 0x1d
    12e4:	9e 01       	movw	r18, r28
    12e6:	24 5f       	subi	r18, 0xF4	; 244
    12e8:	3f 4f       	sbci	r19, 0xFF	; 255
    12ea:	4a 85       	ldd	r20, Y+10	; 0x0a
    12ec:	5b 85       	ldd	r21, Y+11	; 0x0b
    12ee:	82 8d       	ldd	r24, Z+26	; 0x1a
    12f0:	93 8d       	ldd	r25, Z+27	; 0x1b
    12f2:	0e 94 08 28 	call	0x5010	; 0x5010 <vsnprintf>
    12f6:	f8 01       	movw	r30, r16
    12f8:	62 8d       	ldd	r22, Z+26	; 0x1a
    12fa:	73 8d       	ldd	r23, Z+27	; 0x1b
    12fc:	c8 01       	movw	r24, r16
    12fe:	0e 94 1e 09 	call	0x123c	; 0x123c <avrSerialxPrint>
    1302:	f8 01       	movw	r30, r16
    1304:	17 8e       	std	Z+31, r1	; 0x1f
    1306:	16 8e       	std	Z+30, r1	; 0x1e
    1308:	e4 e0       	ldi	r30, 0x04	; 4
    130a:	0c 94 bc 27 	jmp	0x4f78	; 0x4f78 <__epilogue_restores__+0x1c>

0000130e <avrSerialxPrintf_P>:
    130e:	a0 e0       	ldi	r26, 0x00	; 0
    1310:	b0 e0       	ldi	r27, 0x00	; 0
    1312:	ed e8       	ldi	r30, 0x8D	; 141
    1314:	f9 e0       	ldi	r31, 0x09	; 9
    1316:	0c 94 a0 27 	jmp	0x4f40	; 0x4f40 <__prologue_saves__+0x1c>
    131a:	08 85       	ldd	r16, Y+8	; 0x08
    131c:	19 85       	ldd	r17, Y+9	; 0x09
    131e:	f8 01       	movw	r30, r16
    1320:	86 8d       	ldd	r24, Z+30	; 0x1e
    1322:	97 8d       	ldd	r25, Z+31	; 0x1f
    1324:	01 97       	sbiw	r24, 0x01	; 1
    1326:	51 f4       	brne	.+20     	; 0x133c <avrSerialxPrintf_P+0x2e>
    1328:	f5 e8       	ldi	r31, 0x85	; 133
    132a:	fa 95       	dec	r31
    132c:	f1 f7       	brne	.-4      	; 0x132a <avrSerialxPrintf_P+0x1c>
    132e:	00 00       	nop
    1330:	f8 01       	movw	r30, r16
    1332:	26 8d       	ldd	r18, Z+30	; 0x1e
    1334:	37 8d       	ldd	r19, Z+31	; 0x1f
    1336:	21 30       	cpi	r18, 0x01	; 1
    1338:	31 05       	cpc	r19, r1
    133a:	b1 f3       	breq	.-20     	; 0x1328 <avrSerialxPrintf_P+0x1a>
    133c:	81 e0       	ldi	r24, 0x01	; 1
    133e:	90 e0       	ldi	r25, 0x00	; 0
    1340:	f8 01       	movw	r30, r16
    1342:	97 8f       	std	Z+31, r25	; 0x1f
    1344:	86 8f       	std	Z+30, r24	; 0x1e
    1346:	64 8d       	ldd	r22, Z+28	; 0x1c
    1348:	75 8d       	ldd	r23, Z+29	; 0x1d
    134a:	9e 01       	movw	r18, r28
    134c:	24 5f       	subi	r18, 0xF4	; 244
    134e:	3f 4f       	sbci	r19, 0xFF	; 255
    1350:	4a 85       	ldd	r20, Y+10	; 0x0a
    1352:	5b 85       	ldd	r21, Y+11	; 0x0b
    1354:	82 8d       	ldd	r24, Z+26	; 0x1a
    1356:	93 8d       	ldd	r25, Z+27	; 0x1b
    1358:	0e 94 41 28 	call	0x5082	; 0x5082 <vsnprintf_P>
    135c:	f8 01       	movw	r30, r16
    135e:	62 8d       	ldd	r22, Z+26	; 0x1a
    1360:	73 8d       	ldd	r23, Z+27	; 0x1b
    1362:	c8 01       	movw	r24, r16
    1364:	0e 94 1e 09 	call	0x123c	; 0x123c <avrSerialxPrint>
    1368:	f8 01       	movw	r30, r16
    136a:	17 8e       	std	Z+31, r1	; 0x1f
    136c:	16 8e       	std	Z+30, r1	; 0x1e
    136e:	e4 e0       	ldi	r30, 0x04	; 4
    1370:	0c 94 bc 27 	jmp	0x4f78	; 0x4f78 <__epilogue_restores__+0x1c>

00001374 <avrSerialxPrint_P>:
    1374:	a2 e0       	ldi	r26, 0x02	; 2
    1376:	b0 e0       	ldi	r27, 0x00	; 0
    1378:	e0 ec       	ldi	r30, 0xC0	; 192
    137a:	f9 e0       	ldi	r31, 0x09	; 9
    137c:	0c 94 a0 27 	jmp	0x4f40	; 0x4f40 <__prologue_saves__+0x1c>
    1380:	8c 01       	movw	r16, r24
    1382:	cb 01       	movw	r24, r22
    1384:	69 83       	std	Y+1, r22	; 0x01
    1386:	7a 83       	std	Y+2, r23	; 0x02
    1388:	0e 94 c9 27 	call	0x4f92	; 0x4f92 <__strlen_P>
    138c:	69 81       	ldd	r22, Y+1	; 0x01
    138e:	7a 81       	ldd	r23, Y+2	; 0x02
    1390:	00 97       	sbiw	r24, 0x00	; 0
    1392:	31 f1       	breq	.+76     	; 0x13e0 <avrSerialxPrint_P+0x6c>
    1394:	fb 01       	movw	r30, r22
    1396:	8e 0f       	add	r24, r30
    1398:	9f 1f       	adc	r25, r31
    139a:	54 91       	lpm	r21, Z
    139c:	0b c0       	rjmp	.+22     	; 0x13b4 <avrSerialxPrint_P+0x40>
    139e:	21 30       	cpi	r18, 0x01	; 1
    13a0:	31 05       	cpc	r19, r1
    13a2:	21 f4       	brne	.+8      	; 0x13ac <avrSerialxPrint_P+0x38>
    13a4:	40 91 c8 00 	lds	r20, 0x00C8
    13a8:	40 72       	andi	r20, 0x20	; 32
    13aa:	71 f4       	brne	.+28     	; 0x13c8 <avrSerialxPrint_P+0x54>
    13ac:	25 e8       	ldi	r18, 0x85	; 133
    13ae:	2a 95       	dec	r18
    13b0:	f1 f7       	brne	.-4      	; 0x13ae <avrSerialxPrint_P+0x3a>
    13b2:	00 00       	nop
    13b4:	d8 01       	movw	r26, r16
    13b6:	2d 91       	ld	r18, X+
    13b8:	3c 91       	ld	r19, X
    13ba:	21 15       	cp	r18, r1
    13bc:	31 05       	cpc	r19, r1
    13be:	79 f7       	brne	.-34     	; 0x139e <avrSerialxPrint_P+0x2a>
    13c0:	40 91 c0 00 	lds	r20, 0x00C0
    13c4:	40 72       	andi	r20, 0x20	; 32
    13c6:	91 f3       	breq	.-28     	; 0x13ac <avrSerialxPrint_P+0x38>
    13c8:	21 15       	cp	r18, r1
    13ca:	31 05       	cpc	r19, r1
    13cc:	69 f0       	breq	.+26     	; 0x13e8 <avrSerialxPrint_P+0x74>
    13ce:	21 30       	cpi	r18, 0x01	; 1
    13d0:	31 05       	cpc	r19, r1
    13d2:	11 f4       	brne	.+4      	; 0x13d8 <avrSerialxPrint_P+0x64>
    13d4:	50 93 ce 00 	sts	0x00CE, r21
    13d8:	31 96       	adiw	r30, 0x01	; 1
    13da:	e8 17       	cp	r30, r24
    13dc:	f9 07       	cpc	r31, r25
    13de:	e9 f6       	brne	.-70     	; 0x139a <avrSerialxPrint_P+0x26>
    13e0:	22 96       	adiw	r28, 0x02	; 2
    13e2:	e4 e0       	ldi	r30, 0x04	; 4
    13e4:	0c 94 bc 27 	jmp	0x4f78	; 0x4f78 <__epilogue_restores__+0x1c>
    13e8:	50 93 c6 00 	sts	0x00C6, r21
    13ec:	f5 cf       	rjmp	.-22     	; 0x13d8 <avrSerialxPrint_P+0x64>

000013ee <avrSerialxWrite>:
    13ee:	fc 01       	movw	r30, r24
    13f0:	0b c0       	rjmp	.+22     	; 0x1408 <avrSerialxWrite+0x1a>
    13f2:	21 30       	cpi	r18, 0x01	; 1
    13f4:	31 05       	cpc	r19, r1
    13f6:	21 f4       	brne	.+8      	; 0x1400 <avrSerialxWrite+0x12>
    13f8:	80 91 c8 00 	lds	r24, 0x00C8
    13fc:	80 72       	andi	r24, 0x20	; 32
    13fe:	69 f4       	brne	.+26     	; 0x141a <avrSerialxWrite+0x2c>
    1400:	85 e8       	ldi	r24, 0x85	; 133
    1402:	8a 95       	dec	r24
    1404:	f1 f7       	brne	.-4      	; 0x1402 <avrSerialxWrite+0x14>
    1406:	00 00       	nop
    1408:	20 81       	ld	r18, Z
    140a:	31 81       	ldd	r19, Z+1	; 0x01
    140c:	21 15       	cp	r18, r1
    140e:	31 05       	cpc	r19, r1
    1410:	81 f7       	brne	.-32     	; 0x13f2 <avrSerialxWrite+0x4>
    1412:	80 91 c0 00 	lds	r24, 0x00C0
    1416:	80 72       	andi	r24, 0x20	; 32
    1418:	99 f3       	breq	.-26     	; 0x1400 <avrSerialxWrite+0x12>
    141a:	21 15       	cp	r18, r1
    141c:	31 05       	cpc	r19, r1
    141e:	39 f0       	breq	.+14     	; 0x142e <avrSerialxWrite+0x40>
    1420:	21 30       	cpi	r18, 0x01	; 1
    1422:	31 05       	cpc	r19, r1
    1424:	19 f4       	brne	.+6      	; 0x142c <avrSerialxWrite+0x3e>
    1426:	60 93 ce 00 	sts	0x00CE, r22
    142a:	08 95       	ret
    142c:	08 95       	ret
    142e:	60 93 c6 00 	sts	0x00C6, r22
    1432:	08 95       	ret

00001434 <avrSerialxRead>:
    1434:	fc 01       	movw	r30, r24
    1436:	0b c0       	rjmp	.+22     	; 0x144e <avrSerialxRead+0x1a>
    1438:	21 30       	cpi	r18, 0x01	; 1
    143a:	31 05       	cpc	r19, r1
    143c:	21 f4       	brne	.+8      	; 0x1446 <avrSerialxRead+0x12>
    143e:	80 91 c8 00 	lds	r24, 0x00C8
    1442:	80 78       	andi	r24, 0x80	; 128
    1444:	69 f4       	brne	.+26     	; 0x1460 <avrSerialxRead+0x2c>
    1446:	85 e8       	ldi	r24, 0x85	; 133
    1448:	8a 95       	dec	r24
    144a:	f1 f7       	brne	.-4      	; 0x1448 <avrSerialxRead+0x14>
    144c:	00 00       	nop
    144e:	20 81       	ld	r18, Z
    1450:	31 81       	ldd	r19, Z+1	; 0x01
    1452:	21 15       	cp	r18, r1
    1454:	31 05       	cpc	r19, r1
    1456:	81 f7       	brne	.-32     	; 0x1438 <avrSerialxRead+0x4>
    1458:	80 91 c0 00 	lds	r24, 0x00C0
    145c:	80 78       	andi	r24, 0x80	; 128
    145e:	99 f3       	breq	.-26     	; 0x1446 <avrSerialxRead+0x12>
    1460:	21 15       	cp	r18, r1
    1462:	31 05       	cpc	r19, r1
    1464:	61 f0       	breq	.+24     	; 0x147e <avrSerialxRead+0x4a>
    1466:	21 30       	cpi	r18, 0x01	; 1
    1468:	31 05       	cpc	r19, r1
    146a:	39 f4       	brne	.+14     	; 0x147a <avrSerialxRead+0x46>
    146c:	80 91 c8 00 	lds	r24, 0x00C8
    1470:	8c 71       	andi	r24, 0x1C	; 28
    1472:	19 f4       	brne	.+6      	; 0x147a <avrSerialxRead+0x46>
    1474:	80 91 ce 00 	lds	r24, 0x00CE
    1478:	08 95       	ret
    147a:	8f ef       	ldi	r24, 0xFF	; 255
    147c:	08 95       	ret
    147e:	80 91 c0 00 	lds	r24, 0x00C0
    1482:	8c 71       	andi	r24, 0x1C	; 28
    1484:	d1 f7       	brne	.-12     	; 0x147a <avrSerialxRead+0x46>
    1486:	80 91 c6 00 	lds	r24, 0x00C6
    148a:	08 95       	ret

0000148c <avrSerialxCheckRxComplete>:
    148c:	fc 01       	movw	r30, r24
    148e:	80 81       	ld	r24, Z
    1490:	91 81       	ldd	r25, Z+1	; 0x01
    1492:	00 97       	sbiw	r24, 0x00	; 0
    1494:	41 f0       	breq	.+16     	; 0x14a6 <avrSerialxCheckRxComplete+0x1a>
    1496:	01 97       	sbiw	r24, 0x01	; 1
    1498:	21 f4       	brne	.+8      	; 0x14a2 <avrSerialxCheckRxComplete+0x16>
    149a:	80 91 c8 00 	lds	r24, 0x00C8
    149e:	80 78       	andi	r24, 0x80	; 128
    14a0:	08 95       	ret
    14a2:	80 e0       	ldi	r24, 0x00	; 0
    14a4:	08 95       	ret
    14a6:	80 91 c0 00 	lds	r24, 0x00C0
    14aa:	80 78       	andi	r24, 0x80	; 128
    14ac:	08 95       	ret

000014ae <avrSerialxCheckTxReady>:
    14ae:	fc 01       	movw	r30, r24
    14b0:	80 81       	ld	r24, Z
    14b2:	91 81       	ldd	r25, Z+1	; 0x01
    14b4:	00 97       	sbiw	r24, 0x00	; 0
    14b6:	41 f0       	breq	.+16     	; 0x14c8 <avrSerialxCheckTxReady+0x1a>
    14b8:	01 97       	sbiw	r24, 0x01	; 1
    14ba:	21 f4       	brne	.+8      	; 0x14c4 <avrSerialxCheckTxReady+0x16>
    14bc:	80 91 c8 00 	lds	r24, 0x00C8
    14c0:	80 72       	andi	r24, 0x20	; 32
    14c2:	08 95       	ret
    14c4:	80 e0       	ldi	r24, 0x00	; 0
    14c6:	08 95       	ret
    14c8:	80 91 c0 00 	lds	r24, 0x00C0
    14cc:	80 72       	andi	r24, 0x20	; 32
    14ce:	08 95       	ret

000014d0 <__vector_25>:
    14d0:	1f 92       	push	r1
    14d2:	0f 92       	push	r0
    14d4:	0f b6       	in	r0, 0x3f	; 63
    14d6:	0f 92       	push	r0
    14d8:	11 24       	eor	r1, r1
    14da:	0b b6       	in	r0, 0x3b	; 59
    14dc:	0f 92       	push	r0
    14de:	2f 93       	push	r18
    14e0:	3f 93       	push	r19
    14e2:	4f 93       	push	r20
    14e4:	8f 93       	push	r24
    14e6:	9f 93       	push	r25
    14e8:	af 93       	push	r26
    14ea:	bf 93       	push	r27
    14ec:	ef 93       	push	r30
    14ee:	ff 93       	push	r31
    14f0:	80 91 c0 00 	lds	r24, 0x00C0
    14f4:	8c 71       	andi	r24, 0x1C	; 28
    14f6:	59 f5       	brne	.+86     	; 0x154e <__vector_25+0x7e>
    14f8:	40 91 c6 00 	lds	r20, 0x00C6
    14fc:	0f b6       	in	r0, 0x3f	; 63
    14fe:	f8 94       	cli
    1500:	0f 92       	push	r0
    1502:	20 91 c0 14 	lds	r18, 0x14C0
    1506:	30 91 c1 14 	lds	r19, 0x14C1
    150a:	0f 90       	pop	r0
    150c:	0f be       	out	0x3f, r0	; 63
    150e:	80 91 ca 14 	lds	r24, 0x14CA
    1512:	90 91 cb 14 	lds	r25, 0x14CB
    1516:	28 17       	cp	r18, r24
    1518:	39 07       	cpc	r19, r25
    151a:	c9 f0       	breq	.+50     	; 0x154e <__vector_25+0x7e>
    151c:	e0 ec       	ldi	r30, 0xC0	; 192
    151e:	f4 e1       	ldi	r31, 0x14	; 20
    1520:	a2 81       	ldd	r26, Z+2	; 0x02
    1522:	b3 81       	ldd	r27, Z+3	; 0x03
    1524:	4c 93       	st	X, r20
    1526:	0f b6       	in	r0, 0x3f	; 63
    1528:	f8 94       	cli
    152a:	0f 92       	push	r0
    152c:	82 81       	ldd	r24, Z+2	; 0x02
    152e:	93 81       	ldd	r25, Z+3	; 0x03
    1530:	01 96       	adiw	r24, 0x01	; 1
    1532:	93 83       	std	Z+3, r25	; 0x03
    1534:	82 83       	std	Z+2, r24	; 0x02
    1536:	20 85       	ldd	r18, Z+8	; 0x08
    1538:	31 85       	ldd	r19, Z+9	; 0x09
    153a:	82 17       	cp	r24, r18
    153c:	93 07       	cpc	r25, r19
    153e:	b9 f0       	breq	.+46     	; 0x156e <__vector_25+0x9e>
    1540:	80 81       	ld	r24, Z
    1542:	91 81       	ldd	r25, Z+1	; 0x01
    1544:	01 96       	adiw	r24, 0x01	; 1
    1546:	91 83       	std	Z+1, r25	; 0x01
    1548:	80 83       	st	Z, r24
    154a:	0f 90       	pop	r0
    154c:	0f be       	out	0x3f, r0	; 63
    154e:	ff 91       	pop	r31
    1550:	ef 91       	pop	r30
    1552:	bf 91       	pop	r27
    1554:	af 91       	pop	r26
    1556:	9f 91       	pop	r25
    1558:	8f 91       	pop	r24
    155a:	4f 91       	pop	r20
    155c:	3f 91       	pop	r19
    155e:	2f 91       	pop	r18
    1560:	0f 90       	pop	r0
    1562:	0b be       	out	0x3b, r0	; 59
    1564:	0f 90       	pop	r0
    1566:	0f be       	out	0x3f, r0	; 63
    1568:	0f 90       	pop	r0
    156a:	1f 90       	pop	r1
    156c:	18 95       	reti
    156e:	86 81       	ldd	r24, Z+6	; 0x06
    1570:	97 81       	ldd	r25, Z+7	; 0x07
    1572:	93 83       	std	Z+3, r25	; 0x03
    1574:	82 83       	std	Z+2, r24	; 0x02
    1576:	e4 cf       	rjmp	.-56     	; 0x1540 <__vector_25+0x70>

00001578 <__vector_26>:
    1578:	1f 92       	push	r1
    157a:	0f 92       	push	r0
    157c:	0f b6       	in	r0, 0x3f	; 63
    157e:	0f 92       	push	r0
    1580:	11 24       	eor	r1, r1
    1582:	0b b6       	in	r0, 0x3b	; 59
    1584:	0f 92       	push	r0
    1586:	2f 93       	push	r18
    1588:	8f 93       	push	r24
    158a:	9f 93       	push	r25
    158c:	af 93       	push	r26
    158e:	bf 93       	push	r27
    1590:	ef 93       	push	r30
    1592:	ff 93       	push	r31
    1594:	0f b6       	in	r0, 0x3f	; 63
    1596:	f8 94       	cli
    1598:	0f 92       	push	r0
    159a:	80 91 cc 14 	lds	r24, 0x14CC
    159e:	90 91 cd 14 	lds	r25, 0x14CD
    15a2:	0f 90       	pop	r0
    15a4:	0f be       	out	0x3f, r0	; 63
    15a6:	89 2b       	or	r24, r25
    15a8:	31 f1       	breq	.+76     	; 0x15f6 <__vector_26+0x7e>
    15aa:	ec ec       	ldi	r30, 0xCC	; 204
    15ac:	f4 e1       	ldi	r31, 0x14	; 20
    15ae:	a4 81       	ldd	r26, Z+4	; 0x04
    15b0:	b5 81       	ldd	r27, Z+5	; 0x05
    15b2:	2d 91       	ld	r18, X+
    15b4:	0f b6       	in	r0, 0x3f	; 63
    15b6:	f8 94       	cli
    15b8:	0f 92       	push	r0
    15ba:	b5 83       	std	Z+5, r27	; 0x05
    15bc:	a4 83       	std	Z+4, r26	; 0x04
    15be:	80 85       	ldd	r24, Z+8	; 0x08
    15c0:	91 85       	ldd	r25, Z+9	; 0x09
    15c2:	a8 17       	cp	r26, r24
    15c4:	b9 07       	cpc	r27, r25
    15c6:	e9 f0       	breq	.+58     	; 0x1602 <__vector_26+0x8a>
    15c8:	80 81       	ld	r24, Z
    15ca:	91 81       	ldd	r25, Z+1	; 0x01
    15cc:	01 97       	sbiw	r24, 0x01	; 1
    15ce:	91 83       	std	Z+1, r25	; 0x01
    15d0:	80 83       	st	Z, r24
    15d2:	0f 90       	pop	r0
    15d4:	0f be       	out	0x3f, r0	; 63
    15d6:	20 93 c6 00 	sts	0x00C6, r18
    15da:	ff 91       	pop	r31
    15dc:	ef 91       	pop	r30
    15de:	bf 91       	pop	r27
    15e0:	af 91       	pop	r26
    15e2:	9f 91       	pop	r25
    15e4:	8f 91       	pop	r24
    15e6:	2f 91       	pop	r18
    15e8:	0f 90       	pop	r0
    15ea:	0b be       	out	0x3b, r0	; 59
    15ec:	0f 90       	pop	r0
    15ee:	0f be       	out	0x3f, r0	; 63
    15f0:	0f 90       	pop	r0
    15f2:	1f 90       	pop	r1
    15f4:	18 95       	reti
    15f6:	80 91 c1 00 	lds	r24, 0x00C1
    15fa:	8f 7d       	andi	r24, 0xDF	; 223
    15fc:	80 93 c1 00 	sts	0x00C1, r24
    1600:	ec cf       	rjmp	.-40     	; 0x15da <__vector_26+0x62>
    1602:	86 81       	ldd	r24, Z+6	; 0x06
    1604:	97 81       	ldd	r25, Z+7	; 0x07
    1606:	95 83       	std	Z+5, r25	; 0x05
    1608:	84 83       	std	Z+4, r24	; 0x04
    160a:	de cf       	rjmp	.-68     	; 0x15c8 <__vector_26+0x50>

0000160c <__vector_36>:
    160c:	1f 92       	push	r1
    160e:	0f 92       	push	r0
    1610:	0f b6       	in	r0, 0x3f	; 63
    1612:	0f 92       	push	r0
    1614:	11 24       	eor	r1, r1
    1616:	0b b6       	in	r0, 0x3b	; 59
    1618:	0f 92       	push	r0
    161a:	2f 93       	push	r18
    161c:	3f 93       	push	r19
    161e:	4f 93       	push	r20
    1620:	8f 93       	push	r24
    1622:	9f 93       	push	r25
    1624:	af 93       	push	r26
    1626:	bf 93       	push	r27
    1628:	ef 93       	push	r30
    162a:	ff 93       	push	r31
    162c:	80 91 c8 00 	lds	r24, 0x00C8
    1630:	8c 71       	andi	r24, 0x1C	; 28
    1632:	59 f5       	brne	.+86     	; 0x168a <__vector_36+0x7e>
    1634:	40 91 ce 00 	lds	r20, 0x00CE
    1638:	0f b6       	in	r0, 0x3f	; 63
    163a:	f8 94       	cli
    163c:	0f 92       	push	r0
    163e:	20 91 e0 14 	lds	r18, 0x14E0
    1642:	30 91 e1 14 	lds	r19, 0x14E1
    1646:	0f 90       	pop	r0
    1648:	0f be       	out	0x3f, r0	; 63
    164a:	80 91 ea 14 	lds	r24, 0x14EA
    164e:	90 91 eb 14 	lds	r25, 0x14EB
    1652:	28 17       	cp	r18, r24
    1654:	39 07       	cpc	r19, r25
    1656:	c9 f0       	breq	.+50     	; 0x168a <__vector_36+0x7e>
    1658:	e0 ee       	ldi	r30, 0xE0	; 224
    165a:	f4 e1       	ldi	r31, 0x14	; 20
    165c:	a2 81       	ldd	r26, Z+2	; 0x02
    165e:	b3 81       	ldd	r27, Z+3	; 0x03
    1660:	4c 93       	st	X, r20
    1662:	0f b6       	in	r0, 0x3f	; 63
    1664:	f8 94       	cli
    1666:	0f 92       	push	r0
    1668:	82 81       	ldd	r24, Z+2	; 0x02
    166a:	93 81       	ldd	r25, Z+3	; 0x03
    166c:	01 96       	adiw	r24, 0x01	; 1
    166e:	93 83       	std	Z+3, r25	; 0x03
    1670:	82 83       	std	Z+2, r24	; 0x02
    1672:	20 85       	ldd	r18, Z+8	; 0x08
    1674:	31 85       	ldd	r19, Z+9	; 0x09
    1676:	82 17       	cp	r24, r18
    1678:	93 07       	cpc	r25, r19
    167a:	b9 f0       	breq	.+46     	; 0x16aa <__vector_36+0x9e>
    167c:	80 81       	ld	r24, Z
    167e:	91 81       	ldd	r25, Z+1	; 0x01
    1680:	01 96       	adiw	r24, 0x01	; 1
    1682:	91 83       	std	Z+1, r25	; 0x01
    1684:	80 83       	st	Z, r24
    1686:	0f 90       	pop	r0
    1688:	0f be       	out	0x3f, r0	; 63
    168a:	ff 91       	pop	r31
    168c:	ef 91       	pop	r30
    168e:	bf 91       	pop	r27
    1690:	af 91       	pop	r26
    1692:	9f 91       	pop	r25
    1694:	8f 91       	pop	r24
    1696:	4f 91       	pop	r20
    1698:	3f 91       	pop	r19
    169a:	2f 91       	pop	r18
    169c:	0f 90       	pop	r0
    169e:	0b be       	out	0x3b, r0	; 59
    16a0:	0f 90       	pop	r0
    16a2:	0f be       	out	0x3f, r0	; 63
    16a4:	0f 90       	pop	r0
    16a6:	1f 90       	pop	r1
    16a8:	18 95       	reti
    16aa:	86 81       	ldd	r24, Z+6	; 0x06
    16ac:	97 81       	ldd	r25, Z+7	; 0x07
    16ae:	93 83       	std	Z+3, r25	; 0x03
    16b0:	82 83       	std	Z+2, r24	; 0x02
    16b2:	e4 cf       	rjmp	.-56     	; 0x167c <__vector_36+0x70>

000016b4 <__vector_37>:
    16b4:	1f 92       	push	r1
    16b6:	0f 92       	push	r0
    16b8:	0f b6       	in	r0, 0x3f	; 63
    16ba:	0f 92       	push	r0
    16bc:	11 24       	eor	r1, r1
    16be:	0b b6       	in	r0, 0x3b	; 59
    16c0:	0f 92       	push	r0
    16c2:	2f 93       	push	r18
    16c4:	8f 93       	push	r24
    16c6:	9f 93       	push	r25
    16c8:	af 93       	push	r26
    16ca:	bf 93       	push	r27
    16cc:	ef 93       	push	r30
    16ce:	ff 93       	push	r31
    16d0:	0f b6       	in	r0, 0x3f	; 63
    16d2:	f8 94       	cli
    16d4:	0f 92       	push	r0
    16d6:	80 91 ec 14 	lds	r24, 0x14EC
    16da:	90 91 ed 14 	lds	r25, 0x14ED
    16de:	0f 90       	pop	r0
    16e0:	0f be       	out	0x3f, r0	; 63
    16e2:	89 2b       	or	r24, r25
    16e4:	31 f1       	breq	.+76     	; 0x1732 <__vector_37+0x7e>
    16e6:	ec ee       	ldi	r30, 0xEC	; 236
    16e8:	f4 e1       	ldi	r31, 0x14	; 20
    16ea:	a4 81       	ldd	r26, Z+4	; 0x04
    16ec:	b5 81       	ldd	r27, Z+5	; 0x05
    16ee:	2d 91       	ld	r18, X+
    16f0:	0f b6       	in	r0, 0x3f	; 63
    16f2:	f8 94       	cli
    16f4:	0f 92       	push	r0
    16f6:	b5 83       	std	Z+5, r27	; 0x05
    16f8:	a4 83       	std	Z+4, r26	; 0x04
    16fa:	80 85       	ldd	r24, Z+8	; 0x08
    16fc:	91 85       	ldd	r25, Z+9	; 0x09
    16fe:	a8 17       	cp	r26, r24
    1700:	b9 07       	cpc	r27, r25
    1702:	e9 f0       	breq	.+58     	; 0x173e <__vector_37+0x8a>
    1704:	80 81       	ld	r24, Z
    1706:	91 81       	ldd	r25, Z+1	; 0x01
    1708:	01 97       	sbiw	r24, 0x01	; 1
    170a:	91 83       	std	Z+1, r25	; 0x01
    170c:	80 83       	st	Z, r24
    170e:	0f 90       	pop	r0
    1710:	0f be       	out	0x3f, r0	; 63
    1712:	20 93 ce 00 	sts	0x00CE, r18
    1716:	ff 91       	pop	r31
    1718:	ef 91       	pop	r30
    171a:	bf 91       	pop	r27
    171c:	af 91       	pop	r26
    171e:	9f 91       	pop	r25
    1720:	8f 91       	pop	r24
    1722:	2f 91       	pop	r18
    1724:	0f 90       	pop	r0
    1726:	0b be       	out	0x3b, r0	; 59
    1728:	0f 90       	pop	r0
    172a:	0f be       	out	0x3f, r0	; 63
    172c:	0f 90       	pop	r0
    172e:	1f 90       	pop	r1
    1730:	18 95       	reti
    1732:	80 91 c9 00 	lds	r24, 0x00C9
    1736:	8f 7d       	andi	r24, 0xDF	; 223
    1738:	80 93 c9 00 	sts	0x00C9, r24
    173c:	ec cf       	rjmp	.-40     	; 0x1716 <__vector_37+0x62>
    173e:	86 81       	ldd	r24, Z+6	; 0x06
    1740:	97 81       	ldd	r25, Z+7	; 0x07
    1742:	95 83       	std	Z+5, r25	; 0x05
    1744:	84 83       	std	Z+4, r24	; 0x04
    1746:	de cf       	rjmp	.-68     	; 0x1704 <__vector_37+0x50>

00001748 <pvPortMalloc>:
    1748:	a0 e0       	ldi	r26, 0x00	; 0
    174a:	b0 e0       	ldi	r27, 0x00	; 0
    174c:	ea ea       	ldi	r30, 0xAA	; 170
    174e:	fb e0       	ldi	r31, 0x0B	; 11
    1750:	0c 94 9a 27 	jmp	0x4f34	; 0x4f34 <__prologue_saves__+0x10>
    1754:	ec 01       	movw	r28, r24
    1756:	0e 94 33 15 	call	0x2a66	; 0x2a66 <vTaskSuspendAll>
    175a:	80 91 46 02 	lds	r24, 0x0246
    175e:	90 91 47 02 	lds	r25, 0x0247
    1762:	89 2b       	or	r24, r25
    1764:	09 f4       	brne	.+2      	; 0x1768 <pvPortMalloc+0x20>
    1766:	a2 c0       	rjmp	.+324    	; 0x18ac <pvPortMalloc+0x164>
    1768:	e0 90 44 02 	lds	r14, 0x0244
    176c:	f0 90 45 02 	lds	r15, 0x0245
    1770:	c7 01       	movw	r24, r14
    1772:	8c 23       	and	r24, r28
    1774:	9d 23       	and	r25, r29
    1776:	89 2b       	or	r24, r25
    1778:	09 f0       	breq	.+2      	; 0x177c <pvPortMalloc+0x34>
    177a:	8d c0       	rjmp	.+282    	; 0x1896 <pvPortMalloc+0x14e>
    177c:	20 97       	sbiw	r28, 0x00	; 0
    177e:	09 f4       	brne	.+2      	; 0x1782 <pvPortMalloc+0x3a>
    1780:	8a c0       	rjmp	.+276    	; 0x1896 <pvPortMalloc+0x14e>
    1782:	be 01       	movw	r22, r28
    1784:	6c 5f       	subi	r22, 0xFC	; 252
    1786:	7f 4f       	sbci	r23, 0xFF	; 255
    1788:	09 f4       	brne	.+2      	; 0x178c <pvPortMalloc+0x44>
    178a:	85 c0       	rjmp	.+266    	; 0x1896 <pvPortMalloc+0x14e>
    178c:	80 91 02 02 	lds	r24, 0x0202
    1790:	90 91 03 02 	lds	r25, 0x0203
    1794:	86 17       	cp	r24, r22
    1796:	97 07       	cpc	r25, r23
    1798:	08 f4       	brcc	.+2      	; 0x179c <pvPortMalloc+0x54>
    179a:	7d c0       	rjmp	.+250    	; 0x1896 <pvPortMalloc+0x14e>
    179c:	e0 91 48 02 	lds	r30, 0x0248
    17a0:	f0 91 49 02 	lds	r31, 0x0249
    17a4:	a8 e4       	ldi	r26, 0x48	; 72
    17a6:	b2 e0       	ldi	r27, 0x02	; 2
    17a8:	07 c0       	rjmp	.+14     	; 0x17b8 <pvPortMalloc+0x70>
    17aa:	20 81       	ld	r18, Z
    17ac:	31 81       	ldd	r19, Z+1	; 0x01
    17ae:	21 15       	cp	r18, r1
    17b0:	31 05       	cpc	r19, r1
    17b2:	39 f0       	breq	.+14     	; 0x17c2 <pvPortMalloc+0x7a>
    17b4:	df 01       	movw	r26, r30
    17b6:	f9 01       	movw	r30, r18
    17b8:	42 81       	ldd	r20, Z+2	; 0x02
    17ba:	53 81       	ldd	r21, Z+3	; 0x03
    17bc:	46 17       	cp	r20, r22
    17be:	57 07       	cpc	r21, r23
    17c0:	a0 f3       	brcs	.-24     	; 0x17aa <pvPortMalloc+0x62>
    17c2:	20 91 46 02 	lds	r18, 0x0246
    17c6:	30 91 47 02 	lds	r19, 0x0247
    17ca:	e2 17       	cp	r30, r18
    17cc:	f3 07       	cpc	r31, r19
    17ce:	09 f4       	brne	.+2      	; 0x17d2 <pvPortMalloc+0x8a>
    17d0:	62 c0       	rjmp	.+196    	; 0x1896 <pvPortMalloc+0x14e>
    17d2:	0d 91       	ld	r16, X+
    17d4:	1c 91       	ld	r17, X
    17d6:	11 97       	sbiw	r26, 0x01	; 1
    17d8:	0c 5f       	subi	r16, 0xFC	; 252
    17da:	1f 4f       	sbci	r17, 0xFF	; 255
    17dc:	c0 81       	ld	r28, Z
    17de:	d1 81       	ldd	r29, Z+1	; 0x01
    17e0:	cd 93       	st	X+, r28
    17e2:	dc 93       	st	X, r29
    17e4:	da 01       	movw	r26, r20
    17e6:	a6 1b       	sub	r26, r22
    17e8:	b7 0b       	sbc	r27, r23
    17ea:	a9 30       	cpi	r26, 0x09	; 9
    17ec:	b1 05       	cpc	r27, r1
    17ee:	98 f1       	brcs	.+102    	; 0x1856 <pvPortMalloc+0x10e>
    17f0:	af 01       	movw	r20, r30
    17f2:	46 0f       	add	r20, r22
    17f4:	57 1f       	adc	r21, r23
    17f6:	ea 01       	movw	r28, r20
    17f8:	bb 83       	std	Y+3, r27	; 0x03
    17fa:	aa 83       	std	Y+2, r26	; 0x02
    17fc:	73 83       	std	Z+3, r23	; 0x03
    17fe:	62 83       	std	Z+2, r22	; 0x02
    1800:	68 e4       	ldi	r22, 0x48	; 72
    1802:	a6 2e       	mov	r10, r22
    1804:	62 e0       	ldi	r22, 0x02	; 2
    1806:	b6 2e       	mov	r11, r22
    1808:	01 c0       	rjmp	.+2      	; 0x180c <pvPortMalloc+0xc4>
    180a:	5d 01       	movw	r10, r26
    180c:	e5 01       	movw	r28, r10
    180e:	a8 81       	ld	r26, Y
    1810:	b9 81       	ldd	r27, Y+1	; 0x01
    1812:	a4 17       	cp	r26, r20
    1814:	b5 07       	cpc	r27, r21
    1816:	c8 f3       	brcs	.-14     	; 0x180a <pvPortMalloc+0xc2>
    1818:	e5 01       	movw	r28, r10
    181a:	6a 81       	ldd	r22, Y+2	; 0x02
    181c:	7b 81       	ldd	r23, Y+3	; 0x03
    181e:	65 01       	movw	r12, r10
    1820:	c6 0e       	add	r12, r22
    1822:	d7 1e       	adc	r13, r23
    1824:	ea 01       	movw	r28, r20
    1826:	4c 15       	cp	r20, r12
    1828:	5d 05       	cpc	r21, r13
    182a:	09 f4       	brne	.+2      	; 0x182e <pvPortMalloc+0xe6>
    182c:	85 c0       	rjmp	.+266    	; 0x1938 <pvPortMalloc+0x1f0>
    182e:	6a 81       	ldd	r22, Y+2	; 0x02
    1830:	7b 81       	ldd	r23, Y+3	; 0x03
    1832:	6a 01       	movw	r12, r20
    1834:	c6 0e       	add	r12, r22
    1836:	d7 1e       	adc	r13, r23
    1838:	ac 15       	cp	r26, r12
    183a:	bd 05       	cpc	r27, r13
    183c:	09 f4       	brne	.+2      	; 0x1840 <pvPortMalloc+0xf8>
    183e:	6b c0       	rjmp	.+214    	; 0x1916 <pvPortMalloc+0x1ce>
    1840:	ea 01       	movw	r28, r20
    1842:	b9 83       	std	Y+1, r27	; 0x01
    1844:	a8 83       	st	Y, r26
    1846:	a4 16       	cp	r10, r20
    1848:	b5 06       	cpc	r11, r21
    184a:	19 f0       	breq	.+6      	; 0x1852 <pvPortMalloc+0x10a>
    184c:	d5 01       	movw	r26, r10
    184e:	4d 93       	st	X+, r20
    1850:	5c 93       	st	X, r21
    1852:	42 81       	ldd	r20, Z+2	; 0x02
    1854:	53 81       	ldd	r21, Z+3	; 0x03
    1856:	84 1b       	sub	r24, r20
    1858:	95 0b       	sbc	r25, r21
    185a:	90 93 03 02 	sts	0x0203, r25
    185e:	80 93 02 02 	sts	0x0202, r24
    1862:	20 91 00 02 	lds	r18, 0x0200
    1866:	30 91 01 02 	lds	r19, 0x0201
    186a:	82 17       	cp	r24, r18
    186c:	93 07       	cpc	r25, r19
    186e:	20 f4       	brcc	.+8      	; 0x1878 <pvPortMalloc+0x130>
    1870:	90 93 01 02 	sts	0x0201, r25
    1874:	80 93 00 02 	sts	0x0200, r24
    1878:	4e 29       	or	r20, r14
    187a:	5f 29       	or	r21, r15
    187c:	53 83       	std	Z+3, r21	; 0x03
    187e:	42 83       	std	Z+2, r20	; 0x02
    1880:	11 82       	std	Z+1, r1	; 0x01
    1882:	10 82       	st	Z, r1
    1884:	0e 94 39 15 	call	0x2a72	; 0x2a72 <xTaskResumeAll>
    1888:	c8 01       	movw	r24, r16
    188a:	cd b7       	in	r28, 0x3d	; 61
    188c:	de b7       	in	r29, 0x3e	; 62
    188e:	ea e0       	ldi	r30, 0x0A	; 10
    1890:	0c 94 b6 27 	jmp	0x4f6c	; 0x4f6c <__epilogue_restores__+0x10>
    1894:	5f c0       	rjmp	.+190    	; 0x1954 <vPortFree>
    1896:	00 e0       	ldi	r16, 0x00	; 0
    1898:	10 e0       	ldi	r17, 0x00	; 0
    189a:	0e 94 39 15 	call	0x2a72	; 0x2a72 <xTaskResumeAll>
    189e:	c8 01       	movw	r24, r16
    18a0:	cd b7       	in	r28, 0x3d	; 61
    18a2:	de b7       	in	r29, 0x3e	; 62
    18a4:	ea e0       	ldi	r30, 0x0A	; 10
    18a6:	0c 94 b6 27 	jmp	0x4f6c	; 0x4f6c <__epilogue_restores__+0x10>
    18aa:	54 c0       	rjmp	.+168    	; 0x1954 <vPortFree>
    18ac:	8d e4       	ldi	r24, 0x4D	; 77
    18ae:	92 e0       	ldi	r25, 0x02	; 2
    18b0:	90 93 49 02 	sts	0x0249, r25
    18b4:	80 93 48 02 	sts	0x0248, r24
    18b8:	10 92 4b 02 	sts	0x024B, r1
    18bc:	10 92 4a 02 	sts	0x024A, r1
    18c0:	88 e4       	ldi	r24, 0x48	; 72
    18c2:	94 e1       	ldi	r25, 0x14	; 20
    18c4:	90 93 47 02 	sts	0x0247, r25
    18c8:	80 93 46 02 	sts	0x0246, r24
    18cc:	10 92 4b 14 	sts	0x144B, r1
    18d0:	10 92 4a 14 	sts	0x144A, r1
    18d4:	10 92 49 14 	sts	0x1449, r1
    18d8:	10 92 48 14 	sts	0x1448, r1
    18dc:	2b ef       	ldi	r18, 0xFB	; 251
    18de:	31 e1       	ldi	r19, 0x11	; 17
    18e0:	30 93 50 02 	sts	0x0250, r19
    18e4:	20 93 4f 02 	sts	0x024F, r18
    18e8:	90 93 4e 02 	sts	0x024E, r25
    18ec:	80 93 4d 02 	sts	0x024D, r24
    18f0:	80 91 02 02 	lds	r24, 0x0202
    18f4:	90 91 03 02 	lds	r25, 0x0203
    18f8:	04 97       	sbiw	r24, 0x04	; 4
    18fa:	90 93 03 02 	sts	0x0203, r25
    18fe:	80 93 02 02 	sts	0x0202, r24
    1902:	80 e0       	ldi	r24, 0x00	; 0
    1904:	90 e8       	ldi	r25, 0x80	; 128
    1906:	90 93 45 02 	sts	0x0245, r25
    190a:	80 93 44 02 	sts	0x0244, r24
    190e:	e1 2c       	mov	r14, r1
    1910:	70 e8       	ldi	r23, 0x80	; 128
    1912:	f7 2e       	mov	r15, r23
    1914:	2d cf       	rjmp	.-422    	; 0x1770 <pvPortMalloc+0x28>
    1916:	2a 17       	cp	r18, r26
    1918:	3b 07       	cpc	r19, r27
    191a:	c1 f0       	breq	.+48     	; 0x194c <pvPortMalloc+0x204>
    191c:	12 96       	adiw	r26, 0x02	; 2
    191e:	2d 91       	ld	r18, X+
    1920:	3c 91       	ld	r19, X
    1922:	13 97       	sbiw	r26, 0x03	; 3
    1924:	26 0f       	add	r18, r22
    1926:	37 1f       	adc	r19, r23
    1928:	ea 01       	movw	r28, r20
    192a:	3b 83       	std	Y+3, r19	; 0x03
    192c:	2a 83       	std	Y+2, r18	; 0x02
    192e:	2d 91       	ld	r18, X+
    1930:	3c 91       	ld	r19, X
    1932:	39 83       	std	Y+1, r19	; 0x01
    1934:	28 83       	st	Y, r18
    1936:	87 cf       	rjmp	.-242    	; 0x1846 <pvPortMalloc+0xfe>
    1938:	4a 81       	ldd	r20, Y+2	; 0x02
    193a:	5b 81       	ldd	r21, Y+3	; 0x03
    193c:	46 0f       	add	r20, r22
    193e:	57 1f       	adc	r21, r23
    1940:	e5 01       	movw	r28, r10
    1942:	5b 83       	std	Y+3, r21	; 0x03
    1944:	4a 83       	std	Y+2, r20	; 0x02
    1946:	ba 01       	movw	r22, r20
    1948:	a5 01       	movw	r20, r10
    194a:	73 cf       	rjmp	.-282    	; 0x1832 <pvPortMalloc+0xea>
    194c:	da 01       	movw	r26, r20
    194e:	2d 93       	st	X+, r18
    1950:	3c 93       	st	X, r19
    1952:	79 cf       	rjmp	.-270    	; 0x1846 <pvPortMalloc+0xfe>

00001954 <vPortFree>:
    1954:	0f 93       	push	r16
    1956:	1f 93       	push	r17
    1958:	cf 93       	push	r28
    195a:	df 93       	push	r29
    195c:	00 97       	sbiw	r24, 0x00	; 0
    195e:	89 f0       	breq	.+34     	; 0x1982 <vPortFree+0x2e>
    1960:	ec 01       	movw	r28, r24
    1962:	24 97       	sbiw	r28, 0x04	; 4
    1964:	8a 81       	ldd	r24, Y+2	; 0x02
    1966:	9b 81       	ldd	r25, Y+3	; 0x03
    1968:	20 91 44 02 	lds	r18, 0x0244
    196c:	30 91 45 02 	lds	r19, 0x0245
    1970:	a9 01       	movw	r20, r18
    1972:	48 23       	and	r20, r24
    1974:	59 23       	and	r21, r25
    1976:	45 2b       	or	r20, r21
    1978:	21 f0       	breq	.+8      	; 0x1982 <vPortFree+0x2e>
    197a:	48 81       	ld	r20, Y
    197c:	59 81       	ldd	r21, Y+1	; 0x01
    197e:	45 2b       	or	r20, r21
    1980:	29 f0       	breq	.+10     	; 0x198c <vPortFree+0x38>
    1982:	df 91       	pop	r29
    1984:	cf 91       	pop	r28
    1986:	1f 91       	pop	r17
    1988:	0f 91       	pop	r16
    198a:	08 95       	ret
    198c:	8e 01       	movw	r16, r28
    198e:	20 95       	com	r18
    1990:	30 95       	com	r19
    1992:	28 23       	and	r18, r24
    1994:	39 23       	and	r19, r25
    1996:	3b 83       	std	Y+3, r19	; 0x03
    1998:	2a 83       	std	Y+2, r18	; 0x02
    199a:	0e 94 33 15 	call	0x2a66	; 0x2a66 <vTaskSuspendAll>
    199e:	2a 81       	ldd	r18, Y+2	; 0x02
    19a0:	3b 81       	ldd	r19, Y+3	; 0x03
    19a2:	80 91 02 02 	lds	r24, 0x0202
    19a6:	90 91 03 02 	lds	r25, 0x0203
    19aa:	82 0f       	add	r24, r18
    19ac:	93 1f       	adc	r25, r19
    19ae:	90 93 03 02 	sts	0x0203, r25
    19b2:	80 93 02 02 	sts	0x0202, r24
    19b6:	a8 e4       	ldi	r26, 0x48	; 72
    19b8:	b2 e0       	ldi	r27, 0x02	; 2
    19ba:	01 c0       	rjmp	.+2      	; 0x19be <vPortFree+0x6a>
    19bc:	df 01       	movw	r26, r30
    19be:	ed 91       	ld	r30, X+
    19c0:	fc 91       	ld	r31, X
    19c2:	11 97       	sbiw	r26, 0x01	; 1
    19c4:	ec 17       	cp	r30, r28
    19c6:	fd 07       	cpc	r31, r29
    19c8:	c8 f3       	brcs	.-14     	; 0x19bc <vPortFree+0x68>
    19ca:	12 96       	adiw	r26, 0x02	; 2
    19cc:	8d 91       	ld	r24, X+
    19ce:	9c 91       	ld	r25, X
    19d0:	13 97       	sbiw	r26, 0x03	; 3
    19d2:	ad 01       	movw	r20, r26
    19d4:	48 0f       	add	r20, r24
    19d6:	59 1f       	adc	r21, r25
    19d8:	c4 17       	cp	r28, r20
    19da:	d5 07       	cpc	r29, r21
    19dc:	21 f1       	breq	.+72     	; 0x1a26 <vPortFree+0xd2>
    19de:	c8 01       	movw	r24, r16
    19e0:	82 0f       	add	r24, r18
    19e2:	93 1f       	adc	r25, r19
    19e4:	e8 17       	cp	r30, r24
    19e6:	f9 07       	cpc	r31, r25
    19e8:	59 f0       	breq	.+22     	; 0x1a00 <vPortFree+0xac>
    19ea:	e8 01       	movw	r28, r16
    19ec:	f9 83       	std	Y+1, r31	; 0x01
    19ee:	e8 83       	st	Y, r30
    19f0:	a0 17       	cp	r26, r16
    19f2:	b1 07       	cpc	r27, r17
    19f4:	11 f0       	breq	.+4      	; 0x19fa <vPortFree+0xa6>
    19f6:	0d 93       	st	X+, r16
    19f8:	1c 93       	st	X, r17
    19fa:	0e 94 39 15 	call	0x2a72	; 0x2a72 <xTaskResumeAll>
    19fe:	c1 cf       	rjmp	.-126    	; 0x1982 <vPortFree+0x2e>
    1a00:	80 91 46 02 	lds	r24, 0x0246
    1a04:	90 91 47 02 	lds	r25, 0x0247
    1a08:	e8 17       	cp	r30, r24
    1a0a:	f9 07       	cpc	r31, r25
    1a0c:	71 f3       	breq	.-36     	; 0x19ea <vPortFree+0x96>
    1a0e:	82 81       	ldd	r24, Z+2	; 0x02
    1a10:	93 81       	ldd	r25, Z+3	; 0x03
    1a12:	82 0f       	add	r24, r18
    1a14:	93 1f       	adc	r25, r19
    1a16:	e8 01       	movw	r28, r16
    1a18:	9b 83       	std	Y+3, r25	; 0x03
    1a1a:	8a 83       	std	Y+2, r24	; 0x02
    1a1c:	80 81       	ld	r24, Z
    1a1e:	91 81       	ldd	r25, Z+1	; 0x01
    1a20:	99 83       	std	Y+1, r25	; 0x01
    1a22:	88 83       	st	Y, r24
    1a24:	e5 cf       	rjmp	.-54     	; 0x19f0 <vPortFree+0x9c>
    1a26:	28 0f       	add	r18, r24
    1a28:	39 1f       	adc	r19, r25
    1a2a:	13 96       	adiw	r26, 0x03	; 3
    1a2c:	3c 93       	st	X, r19
    1a2e:	2e 93       	st	-X, r18
    1a30:	12 97       	sbiw	r26, 0x02	; 2
    1a32:	8d 01       	movw	r16, r26
    1a34:	d4 cf       	rjmp	.-88     	; 0x19de <vPortFree+0x8a>

00001a36 <xPortGetFreeHeapSize>:
    1a36:	80 91 02 02 	lds	r24, 0x0202
    1a3a:	90 91 03 02 	lds	r25, 0x0203
    1a3e:	08 95       	ret

00001a40 <xPortGetMinimumEverFreeHeapSize>:
    1a40:	80 91 00 02 	lds	r24, 0x0200
    1a44:	90 91 01 02 	lds	r25, 0x0201
    1a48:	08 95       	ret

00001a4a <vPortInitialiseBlocks>:
    1a4a:	08 95       	ret

00001a4c <prvListTaskWithinSingleList.part.1>:
    1a4c:	6f 92       	push	r6
    1a4e:	7f 92       	push	r7
    1a50:	8f 92       	push	r8
    1a52:	9f 92       	push	r9
    1a54:	af 92       	push	r10
    1a56:	bf 92       	push	r11
    1a58:	cf 92       	push	r12
    1a5a:	df 92       	push	r13
    1a5c:	ef 92       	push	r14
    1a5e:	ff 92       	push	r15
    1a60:	1f 93       	push	r17
    1a62:	cf 93       	push	r28
    1a64:	df 93       	push	r29
    1a66:	db 01       	movw	r26, r22
    1a68:	11 96       	adiw	r26, 0x01	; 1
    1a6a:	ed 91       	ld	r30, X+
    1a6c:	fc 91       	ld	r31, X
    1a6e:	12 97       	sbiw	r26, 0x02	; 2
    1a70:	02 80       	ldd	r0, Z+2	; 0x02
    1a72:	f3 81       	ldd	r31, Z+3	; 0x03
    1a74:	e0 2d       	mov	r30, r0
    1a76:	12 96       	adiw	r26, 0x02	; 2
    1a78:	fc 93       	st	X, r31
    1a7a:	ee 93       	st	-X, r30
    1a7c:	11 97       	sbiw	r26, 0x01	; 1
    1a7e:	9b 01       	movw	r18, r22
    1a80:	2d 5f       	subi	r18, 0xFD	; 253
    1a82:	3f 4f       	sbci	r19, 0xFF	; 255
    1a84:	e2 17       	cp	r30, r18
    1a86:	f3 07       	cpc	r31, r19
    1a88:	09 f4       	brne	.+2      	; 0x1a8c <prvListTaskWithinSingleList.part.1+0x40>
    1a8a:	84 c0       	rjmp	.+264    	; 0x1b94 <prvListTaskWithinSingleList.part.1+0x148>
    1a8c:	66 80       	ldd	r6, Z+6	; 0x06
    1a8e:	77 80       	ldd	r7, Z+7	; 0x07
    1a90:	d1 2c       	mov	r13, r1
    1a92:	a2 e0       	ldi	r26, 0x02	; 2
    1a94:	ea 2e       	mov	r14, r26
    1a96:	f1 2c       	mov	r15, r1
    1a98:	02 80       	ldd	r0, Z+2	; 0x02
    1a9a:	f3 81       	ldd	r31, Z+3	; 0x03
    1a9c:	e0 2d       	mov	r30, r0
    1a9e:	db 01       	movw	r26, r22
    1aa0:	12 96       	adiw	r26, 0x02	; 2
    1aa2:	fc 93       	st	X, r31
    1aa4:	ee 93       	st	-X, r30
    1aa6:	11 97       	sbiw	r26, 0x01	; 1
    1aa8:	2e 17       	cp	r18, r30
    1aaa:	3f 07       	cpc	r19, r31
    1aac:	09 f4       	brne	.+2      	; 0x1ab0 <prvListTaskWithinSingleList.part.1+0x64>
    1aae:	52 c0       	rjmp	.+164    	; 0x1b54 <prvListTaskWithinSingleList.part.1+0x108>
    1ab0:	a6 81       	ldd	r26, Z+6	; 0x06
    1ab2:	b7 81       	ldd	r27, Z+7	; 0x07
    1ab4:	ec 01       	movw	r28, r24
    1ab6:	ff e0       	ldi	r31, 0x0F	; 15
    1ab8:	df 9e       	mul	r13, r31
    1aba:	c0 0d       	add	r28, r0
    1abc:	d1 1d       	adc	r29, r1
    1abe:	11 24       	eor	r1, r1
    1ac0:	b9 83       	std	Y+1, r27	; 0x01
    1ac2:	a8 83       	st	Y, r26
    1ac4:	fd 01       	movw	r30, r26
    1ac6:	79 96       	adiw	r30, 0x19	; 25
    1ac8:	fb 83       	std	Y+3, r31	; 0x03
    1aca:	ea 83       	std	Y+2, r30	; 0x02
    1acc:	91 96       	adiw	r26, 0x21	; 33
    1ace:	ec 91       	ld	r30, X
    1ad0:	91 97       	sbiw	r26, 0x21	; 33
    1ad2:	ec 83       	std	Y+4, r30	; 0x04
    1ad4:	5e 83       	std	Y+6, r21	; 0x06
    1ad6:	4d 83       	std	Y+5, r20	; 0x05
    1ad8:	56 96       	adiw	r26, 0x16	; 22
    1ada:	ec 91       	ld	r30, X
    1adc:	56 97       	sbiw	r26, 0x16	; 22
    1ade:	ef 83       	std	Y+7, r30	; 0x07
    1ae0:	43 30       	cpi	r20, 0x03	; 3
    1ae2:	51 05       	cpc	r21, r1
    1ae4:	71 f1       	breq	.+92     	; 0x1b42 <prvListTaskWithinSingleList.part.1+0xf6>
    1ae6:	93 96       	adiw	r26, 0x23	; 35
    1ae8:	ec 91       	ld	r30, X
    1aea:	93 97       	sbiw	r26, 0x23	; 35
    1aec:	e8 87       	std	Y+8, r30	; 0x08
    1aee:	94 96       	adiw	r26, 0x24	; 36
    1af0:	8d 90       	ld	r8, X+
    1af2:	9d 90       	ld	r9, X+
    1af4:	ad 90       	ld	r10, X+
    1af6:	bc 90       	ld	r11, X
    1af8:	97 97       	sbiw	r26, 0x27	; 39
    1afa:	89 86       	std	Y+9, r8	; 0x09
    1afc:	9a 86       	std	Y+10, r9	; 0x0a
    1afe:	ab 86       	std	Y+11, r10	; 0x0b
    1b00:	bc 86       	std	Y+12, r11	; 0x0c
    1b02:	57 96       	adiw	r26, 0x17	; 23
    1b04:	ed 91       	ld	r30, X+
    1b06:	fc 91       	ld	r31, X
    1b08:	58 97       	sbiw	r26, 0x18	; 24
    1b0a:	c0 80       	ld	r12, Z
    1b0c:	15 ea       	ldi	r17, 0xA5	; 165
    1b0e:	c1 12       	cpse	r12, r17
    1b10:	2a c0       	rjmp	.+84     	; 0x1b66 <prvListTaskWithinSingleList.part.1+0x11a>
    1b12:	31 96       	adiw	r30, 0x01	; 1
    1b14:	81 2c       	mov	r8, r1
    1b16:	91 2c       	mov	r9, r1
    1b18:	54 01       	movw	r10, r8
    1b1a:	1f ef       	ldi	r17, 0xFF	; 255
    1b1c:	81 1a       	sub	r8, r17
    1b1e:	91 0a       	sbc	r9, r17
    1b20:	a1 0a       	sbc	r10, r17
    1b22:	b1 0a       	sbc	r11, r17
    1b24:	11 91       	ld	r17, Z+
    1b26:	15 3a       	cpi	r17, 0xA5	; 165
    1b28:	c1 f3       	breq	.-16     	; 0x1b1a <prvListTaskWithinSingleList.part.1+0xce>
    1b2a:	9e 86       	std	Y+14, r9	; 0x0e
    1b2c:	8d 86       	std	Y+13, r8	; 0x0d
    1b2e:	d3 94       	inc	r13
    1b30:	6a 16       	cp	r6, r26
    1b32:	7b 06       	cpc	r7, r27
    1b34:	01 f1       	breq	.+64     	; 0x1b76 <prvListTaskWithinSingleList.part.1+0x12a>
    1b36:	db 01       	movw	r26, r22
    1b38:	11 96       	adiw	r26, 0x01	; 1
    1b3a:	ed 91       	ld	r30, X+
    1b3c:	fc 91       	ld	r31, X
    1b3e:	12 97       	sbiw	r26, 0x02	; 2
    1b40:	ab cf       	rjmp	.-170    	; 0x1a98 <prvListTaskWithinSingleList.part.1+0x4c>
    1b42:	54 96       	adiw	r26, 0x14	; 20
    1b44:	ed 91       	ld	r30, X+
    1b46:	fc 91       	ld	r31, X
    1b48:	55 97       	sbiw	r26, 0x15	; 21
    1b4a:	ef 2b       	or	r30, r31
    1b4c:	61 f2       	breq	.-104    	; 0x1ae6 <prvListTaskWithinSingleList.part.1+0x9a>
    1b4e:	fe 82       	std	Y+6, r15	; 0x06
    1b50:	ed 82       	std	Y+5, r14	; 0x05
    1b52:	c9 cf       	rjmp	.-110    	; 0x1ae6 <prvListTaskWithinSingleList.part.1+0x9a>
    1b54:	15 96       	adiw	r26, 0x05	; 5
    1b56:	bc 91       	ld	r27, X
    1b58:	fb 01       	movw	r30, r22
    1b5a:	a6 81       	ldd	r26, Z+6	; 0x06
    1b5c:	b1 83       	std	Z+1, r27	; 0x01
    1b5e:	a2 83       	std	Z+2, r26	; 0x02
    1b60:	eb 2f       	mov	r30, r27
    1b62:	fa 2f       	mov	r31, r26
    1b64:	a5 cf       	rjmp	.-182    	; 0x1ab0 <prvListTaskWithinSingleList.part.1+0x64>
    1b66:	81 2c       	mov	r8, r1
    1b68:	91 2c       	mov	r9, r1
    1b6a:	9e 86       	std	Y+14, r9	; 0x0e
    1b6c:	8d 86       	std	Y+13, r8	; 0x0d
    1b6e:	d3 94       	inc	r13
    1b70:	6a 16       	cp	r6, r26
    1b72:	7b 06       	cpc	r7, r27
    1b74:	01 f7       	brne	.-64     	; 0x1b36 <prvListTaskWithinSingleList.part.1+0xea>
    1b76:	8d 2d       	mov	r24, r13
    1b78:	df 91       	pop	r29
    1b7a:	cf 91       	pop	r28
    1b7c:	1f 91       	pop	r17
    1b7e:	ff 90       	pop	r15
    1b80:	ef 90       	pop	r14
    1b82:	df 90       	pop	r13
    1b84:	cf 90       	pop	r12
    1b86:	bf 90       	pop	r11
    1b88:	af 90       	pop	r10
    1b8a:	9f 90       	pop	r9
    1b8c:	8f 90       	pop	r8
    1b8e:	7f 90       	pop	r7
    1b90:	6f 90       	pop	r6
    1b92:	08 95       	ret
    1b94:	d9 01       	movw	r26, r18
    1b96:	12 96       	adiw	r26, 0x02	; 2
    1b98:	ed 91       	ld	r30, X+
    1b9a:	fc 91       	ld	r31, X
    1b9c:	13 97       	sbiw	r26, 0x03	; 3
    1b9e:	76 cf       	rjmp	.-276    	; 0x1a8c <prvListTaskWithinSingleList.part.1+0x40>

00001ba0 <xTaskGenericCreate>:
    1ba0:	a0 e0       	ldi	r26, 0x00	; 0
    1ba2:	b0 e0       	ldi	r27, 0x00	; 0
    1ba4:	e6 ed       	ldi	r30, 0xD6	; 214
    1ba6:	fd e0       	ldi	r31, 0x0D	; 13
    1ba8:	0c 94 95 27 	jmp	0x4f2a	; 0x4f2a <__prologue_saves__+0x6>
    1bac:	4c 01       	movw	r8, r24
    1bae:	16 2f       	mov	r17, r22
    1bb0:	57 2e       	mov	r5, r23
    1bb2:	5a 01       	movw	r10, r20
    1bb4:	39 01       	movw	r6, r18
    1bb6:	88 e2       	ldi	r24, 0x28	; 40
    1bb8:	90 e0       	ldi	r25, 0x00	; 0
    1bba:	0e 94 a4 0b 	call	0x1748	; 0x1748 <pvPortMalloc>
    1bbe:	ec 01       	movw	r28, r24
    1bc0:	00 97       	sbiw	r24, 0x00	; 0
    1bc2:	09 f4       	brne	.+2      	; 0x1bc6 <xTaskGenericCreate+0x26>
    1bc4:	ad c0       	rjmp	.+346    	; 0x1d20 <xTaskGenericCreate+0x180>
    1bc6:	c1 14       	cp	r12, r1
    1bc8:	d1 04       	cpc	r13, r1
    1bca:	09 f4       	brne	.+2      	; 0x1bce <xTaskGenericCreate+0x2e>
    1bcc:	9e c0       	rjmp	.+316    	; 0x1d0a <xTaskGenericCreate+0x16a>
    1bce:	d8 8e       	std	Y+24, r13	; 0x18
    1bd0:	cf 8a       	std	Y+23, r12	; 0x17
    1bd2:	c6 01       	movw	r24, r12
    1bd4:	a5 01       	movw	r20, r10
    1bd6:	65 ea       	ldi	r22, 0xA5	; 165
    1bd8:	70 e0       	ldi	r23, 0x00	; 0
    1bda:	0e 94 d2 27 	call	0x4fa4	; 0x4fa4 <memset>
    1bde:	81 e0       	ldi	r24, 0x01	; 1
    1be0:	a8 1a       	sub	r10, r24
    1be2:	b1 08       	sbc	r11, r1
    1be4:	cf 88       	ldd	r12, Y+23	; 0x17
    1be6:	d8 8c       	ldd	r13, Y+24	; 0x18
    1be8:	ca 0c       	add	r12, r10
    1bea:	db 1c       	adc	r13, r11
    1bec:	ae 01       	movw	r20, r28
    1bee:	47 5e       	subi	r20, 0xE7	; 231
    1bf0:	5f 4f       	sbci	r21, 0xFF	; 255
    1bf2:	e1 2f       	mov	r30, r17
    1bf4:	f5 2d       	mov	r31, r5
    1bf6:	28 e0       	ldi	r18, 0x08	; 8
    1bf8:	cf 01       	movw	r24, r30
    1bfa:	31 91       	ld	r19, Z+
    1bfc:	da 01       	movw	r26, r20
    1bfe:	3d 93       	st	X+, r19
    1c00:	ad 01       	movw	r20, r26
    1c02:	dc 01       	movw	r26, r24
    1c04:	8c 91       	ld	r24, X
    1c06:	88 23       	and	r24, r24
    1c08:	11 f0       	breq	.+4      	; 0x1c0e <xTaskGenericCreate+0x6e>
    1c0a:	21 50       	subi	r18, 0x01	; 1
    1c0c:	a9 f7       	brne	.-22     	; 0x1bf8 <xTaskGenericCreate+0x58>
    1c0e:	18 a2       	std	Y+32, r1	; 0x20
    1c10:	10 2f       	mov	r17, r16
    1c12:	04 30       	cpi	r16, 0x04	; 4
    1c14:	08 f0       	brcs	.+2      	; 0x1c18 <xTaskGenericCreate+0x78>
    1c16:	77 c0       	rjmp	.+238    	; 0x1d06 <xTaskGenericCreate+0x166>
    1c18:	1e 8b       	std	Y+22, r17	; 0x16
    1c1a:	1b a3       	std	Y+35, r17	; 0x23
    1c1c:	5e 01       	movw	r10, r28
    1c1e:	b2 e0       	ldi	r27, 0x02	; 2
    1c20:	ab 0e       	add	r10, r27
    1c22:	b1 1c       	adc	r11, r1
    1c24:	c5 01       	movw	r24, r10
    1c26:	0e 94 e2 26 	call	0x4dc4	; 0x4dc4 <vListInitialiseItem>
    1c2a:	ce 01       	movw	r24, r28
    1c2c:	0c 96       	adiw	r24, 0x0c	; 12
    1c2e:	0e 94 e2 26 	call	0x4dc4	; 0x4dc4 <vListInitialiseItem>
    1c32:	d9 87       	std	Y+9, r29	; 0x09
    1c34:	c8 87       	std	Y+8, r28	; 0x08
    1c36:	84 e0       	ldi	r24, 0x04	; 4
    1c38:	90 e0       	ldi	r25, 0x00	; 0
    1c3a:	81 1b       	sub	r24, r17
    1c3c:	91 09       	sbc	r25, r1
    1c3e:	9d 87       	std	Y+13, r25	; 0x0d
    1c40:	8c 87       	std	Y+12, r24	; 0x0c
    1c42:	db 8b       	std	Y+19, r29	; 0x13
    1c44:	ca 8b       	std	Y+18, r28	; 0x12
    1c46:	1c a2       	std	Y+36, r1	; 0x24
    1c48:	1d a2       	std	Y+37, r1	; 0x25
    1c4a:	1e a2       	std	Y+38, r1	; 0x26
    1c4c:	1f a2       	std	Y+39, r1	; 0x27
    1c4e:	a3 01       	movw	r20, r6
    1c50:	b4 01       	movw	r22, r8
    1c52:	c6 01       	movw	r24, r12
    1c54:	0e 94 3b 25 	call	0x4a76	; 0x4a76 <pxPortInitialiseStack>
    1c58:	99 83       	std	Y+1, r25	; 0x01
    1c5a:	88 83       	st	Y, r24
    1c5c:	e1 14       	cp	r14, r1
    1c5e:	f1 04       	cpc	r15, r1
    1c60:	19 f0       	breq	.+6      	; 0x1c68 <xTaskGenericCreate+0xc8>
    1c62:	f7 01       	movw	r30, r14
    1c64:	d1 83       	std	Z+1, r29	; 0x01
    1c66:	c0 83       	st	Z, r28
    1c68:	0f b6       	in	r0, 0x3f	; 63
    1c6a:	f8 94       	cli
    1c6c:	0f 92       	push	r0
    1c6e:	80 91 5d 14 	lds	r24, 0x145D
    1c72:	8f 5f       	subi	r24, 0xFF	; 255
    1c74:	80 93 5d 14 	sts	0x145D, r24
    1c78:	80 91 b4 14 	lds	r24, 0x14B4
    1c7c:	90 91 b5 14 	lds	r25, 0x14B5
    1c80:	89 2b       	or	r24, r25
    1c82:	09 f4       	brne	.+2      	; 0x1c86 <xTaskGenericCreate+0xe6>
    1c84:	58 c0       	rjmp	.+176    	; 0x1d36 <xTaskGenericCreate+0x196>
    1c86:	80 91 59 14 	lds	r24, 0x1459
    1c8a:	81 11       	cpse	r24, r1
    1c8c:	0b c0       	rjmp	.+22     	; 0x1ca4 <xTaskGenericCreate+0x104>
    1c8e:	e0 91 b4 14 	lds	r30, 0x14B4
    1c92:	f0 91 b5 14 	lds	r31, 0x14B5
    1c96:	86 89       	ldd	r24, Z+22	; 0x16
    1c98:	08 17       	cp	r16, r24
    1c9a:	20 f0       	brcs	.+8      	; 0x1ca4 <xTaskGenericCreate+0x104>
    1c9c:	d0 93 b5 14 	sts	0x14B5, r29
    1ca0:	c0 93 b4 14 	sts	0x14B4, r28
    1ca4:	80 91 55 14 	lds	r24, 0x1455
    1ca8:	8f 5f       	subi	r24, 0xFF	; 255
    1caa:	80 93 55 14 	sts	0x1455, r24
    1cae:	89 a3       	std	Y+33, r24	; 0x21
    1cb0:	2e 89       	ldd	r18, Y+22	; 0x16
    1cb2:	80 91 5a 14 	lds	r24, 0x145A
    1cb6:	82 17       	cp	r24, r18
    1cb8:	18 f1       	brcs	.+70     	; 0x1d00 <xTaskGenericCreate+0x160>
    1cba:	30 e0       	ldi	r19, 0x00	; 0
    1cbc:	c9 01       	movw	r24, r18
    1cbe:	88 0f       	add	r24, r24
    1cc0:	99 1f       	adc	r25, r25
    1cc2:	88 0f       	add	r24, r24
    1cc4:	99 1f       	adc	r25, r25
    1cc6:	88 0f       	add	r24, r24
    1cc8:	99 1f       	adc	r25, r25
    1cca:	82 0f       	add	r24, r18
    1ccc:	93 1f       	adc	r25, r19
    1cce:	b5 01       	movw	r22, r10
    1cd0:	80 57       	subi	r24, 0x70	; 112
    1cd2:	9b 4e       	sbci	r25, 0xEB	; 235
    1cd4:	0e 94 e6 26 	call	0x4dcc	; 0x4dcc <vListInsertEnd>
    1cd8:	0f 90       	pop	r0
    1cda:	0f be       	out	0x3f, r0	; 63
    1cdc:	80 91 59 14 	lds	r24, 0x1459
    1ce0:	88 23       	and	r24, r24
    1ce2:	39 f0       	breq	.+14     	; 0x1cf2 <xTaskGenericCreate+0x152>
    1ce4:	e0 91 b4 14 	lds	r30, 0x14B4
    1ce8:	f0 91 b5 14 	lds	r31, 0x14B5
    1cec:	86 89       	ldd	r24, Z+22	; 0x16
    1cee:	80 17       	cp	r24, r16
    1cf0:	f0 f0       	brcs	.+60     	; 0x1d2e <xTaskGenericCreate+0x18e>
    1cf2:	81 e0       	ldi	r24, 0x01	; 1
    1cf4:	cd b7       	in	r28, 0x3d	; 61
    1cf6:	de b7       	in	r29, 0x3e	; 62
    1cf8:	ef e0       	ldi	r30, 0x0F	; 15
    1cfa:	0c 94 b1 27 	jmp	0x4f62	; 0x4f62 <__epilogue_restores__+0x6>
    1cfe:	55 c0       	rjmp	.+170    	; 0x1daa <vTaskDelete>
    1d00:	20 93 5a 14 	sts	0x145A, r18
    1d04:	da cf       	rjmp	.-76     	; 0x1cba <xTaskGenericCreate+0x11a>
    1d06:	13 e0       	ldi	r17, 0x03	; 3
    1d08:	87 cf       	rjmp	.-242    	; 0x1c18 <xTaskGenericCreate+0x78>
    1d0a:	c5 01       	movw	r24, r10
    1d0c:	0e 94 a4 0b 	call	0x1748	; 0x1748 <pvPortMalloc>
    1d10:	98 8f       	std	Y+24, r25	; 0x18
    1d12:	8f 8b       	std	Y+23, r24	; 0x17
    1d14:	00 97       	sbiw	r24, 0x00	; 0
    1d16:	09 f0       	breq	.+2      	; 0x1d1a <xTaskGenericCreate+0x17a>
    1d18:	5d cf       	rjmp	.-326    	; 0x1bd4 <xTaskGenericCreate+0x34>
    1d1a:	ce 01       	movw	r24, r28
    1d1c:	0e 94 aa 0c 	call	0x1954	; 0x1954 <vPortFree>
    1d20:	8f ef       	ldi	r24, 0xFF	; 255
    1d22:	cd b7       	in	r28, 0x3d	; 61
    1d24:	de b7       	in	r29, 0x3e	; 62
    1d26:	ef e0       	ldi	r30, 0x0F	; 15
    1d28:	0c 94 b1 27 	jmp	0x4f62	; 0x4f62 <__epilogue_restores__+0x6>
    1d2c:	3e c0       	rjmp	.+124    	; 0x1daa <vTaskDelete>
    1d2e:	0e 94 f7 25 	call	0x4bee	; 0x4bee <vPortYield>
    1d32:	81 e0       	ldi	r24, 0x01	; 1
    1d34:	df cf       	rjmp	.-66     	; 0x1cf4 <xTaskGenericCreate+0x154>
    1d36:	d0 93 b5 14 	sts	0x14B5, r29
    1d3a:	c0 93 b4 14 	sts	0x14B4, r28
    1d3e:	80 91 5d 14 	lds	r24, 0x145D
    1d42:	81 30       	cpi	r24, 0x01	; 1
    1d44:	09 f0       	breq	.+2      	; 0x1d48 <xTaskGenericCreate+0x1a8>
    1d46:	ae cf       	rjmp	.-164    	; 0x1ca4 <xTaskGenericCreate+0x104>
    1d48:	80 e9       	ldi	r24, 0x90	; 144
    1d4a:	94 e1       	ldi	r25, 0x14	; 20
    1d4c:	0e 94 d4 26 	call	0x4da8	; 0x4da8 <vListInitialise>
    1d50:	89 e9       	ldi	r24, 0x99	; 153
    1d52:	94 e1       	ldi	r25, 0x14	; 20
    1d54:	0e 94 d4 26 	call	0x4da8	; 0x4da8 <vListInitialise>
    1d58:	82 ea       	ldi	r24, 0xA2	; 162
    1d5a:	94 e1       	ldi	r25, 0x14	; 20
    1d5c:	0e 94 d4 26 	call	0x4da8	; 0x4da8 <vListInitialise>
    1d60:	8b ea       	ldi	r24, 0xAB	; 171
    1d62:	94 e1       	ldi	r25, 0x14	; 20
    1d64:	0e 94 d4 26 	call	0x4da8	; 0x4da8 <vListInitialise>
    1d68:	87 e8       	ldi	r24, 0x87	; 135
    1d6a:	94 e1       	ldi	r25, 0x14	; 20
    1d6c:	0e 94 d4 26 	call	0x4da8	; 0x4da8 <vListInitialise>
    1d70:	8e e7       	ldi	r24, 0x7E	; 126
    1d72:	94 e1       	ldi	r25, 0x14	; 20
    1d74:	0e 94 d4 26 	call	0x4da8	; 0x4da8 <vListInitialise>
    1d78:	81 e7       	ldi	r24, 0x71	; 113
    1d7a:	94 e1       	ldi	r25, 0x14	; 20
    1d7c:	0e 94 d4 26 	call	0x4da8	; 0x4da8 <vListInitialise>
    1d80:	88 e6       	ldi	r24, 0x68	; 104
    1d82:	94 e1       	ldi	r25, 0x14	; 20
    1d84:	0e 94 d4 26 	call	0x4da8	; 0x4da8 <vListInitialise>
    1d88:	8e e5       	ldi	r24, 0x5E	; 94
    1d8a:	94 e1       	ldi	r25, 0x14	; 20
    1d8c:	0e 94 d4 26 	call	0x4da8	; 0x4da8 <vListInitialise>
    1d90:	87 e8       	ldi	r24, 0x87	; 135
    1d92:	94 e1       	ldi	r25, 0x14	; 20
    1d94:	90 93 7d 14 	sts	0x147D, r25
    1d98:	80 93 7c 14 	sts	0x147C, r24
    1d9c:	8e e7       	ldi	r24, 0x7E	; 126
    1d9e:	94 e1       	ldi	r25, 0x14	; 20
    1da0:	90 93 7b 14 	sts	0x147B, r25
    1da4:	80 93 7a 14 	sts	0x147A, r24
    1da8:	7d cf       	rjmp	.-262    	; 0x1ca4 <xTaskGenericCreate+0x104>

00001daa <vTaskDelete>:
    1daa:	0f 93       	push	r16
    1dac:	1f 93       	push	r17
    1dae:	cf 93       	push	r28
    1db0:	df 93       	push	r29
    1db2:	ec 01       	movw	r28, r24
    1db4:	0f b6       	in	r0, 0x3f	; 63
    1db6:	f8 94       	cli
    1db8:	0f 92       	push	r0
    1dba:	00 97       	sbiw	r24, 0x00	; 0
    1dbc:	09 f4       	brne	.+2      	; 0x1dc0 <vTaskDelete+0x16>
    1dbe:	52 c0       	rjmp	.+164    	; 0x1e64 <vTaskDelete+0xba>
    1dc0:	8e 01       	movw	r16, r28
    1dc2:	0e 5f       	subi	r16, 0xFE	; 254
    1dc4:	1f 4f       	sbci	r17, 0xFF	; 255
    1dc6:	c8 01       	movw	r24, r16
    1dc8:	0e 94 38 27 	call	0x4e70	; 0x4e70 <uxListRemove>
    1dcc:	8c 89       	ldd	r24, Y+20	; 0x14
    1dce:	9d 89       	ldd	r25, Y+21	; 0x15
    1dd0:	89 2b       	or	r24, r25
    1dd2:	21 f0       	breq	.+8      	; 0x1ddc <vTaskDelete+0x32>
    1dd4:	ce 01       	movw	r24, r28
    1dd6:	0c 96       	adiw	r24, 0x0c	; 12
    1dd8:	0e 94 38 27 	call	0x4e70	; 0x4e70 <uxListRemove>
    1ddc:	b8 01       	movw	r22, r16
    1dde:	88 e6       	ldi	r24, 0x68	; 104
    1de0:	94 e1       	ldi	r25, 0x14	; 20
    1de2:	0e 94 e6 26 	call	0x4dcc	; 0x4dcc <vListInsertEnd>
    1de6:	80 91 67 14 	lds	r24, 0x1467
    1dea:	8f 5f       	subi	r24, 0xFF	; 255
    1dec:	80 93 67 14 	sts	0x1467, r24
    1df0:	80 91 55 14 	lds	r24, 0x1455
    1df4:	8f 5f       	subi	r24, 0xFF	; 255
    1df6:	80 93 55 14 	sts	0x1455, r24
    1dfa:	0f 90       	pop	r0
    1dfc:	0f be       	out	0x3f, r0	; 63
    1dfe:	80 91 59 14 	lds	r24, 0x1459
    1e02:	88 23       	and	r24, r24
    1e04:	19 f1       	breq	.+70     	; 0x1e4c <vTaskDelete+0xa2>
    1e06:	80 91 b4 14 	lds	r24, 0x14B4
    1e0a:	90 91 b5 14 	lds	r25, 0x14B5
    1e0e:	c8 17       	cp	r28, r24
    1e10:	d9 07       	cpc	r29, r25
    1e12:	69 f1       	breq	.+90     	; 0x1e6e <vTaskDelete+0xc4>
    1e14:	0f b6       	in	r0, 0x3f	; 63
    1e16:	f8 94       	cli
    1e18:	0f 92       	push	r0
    1e1a:	e0 91 7c 14 	lds	r30, 0x147C
    1e1e:	f0 91 7d 14 	lds	r31, 0x147D
    1e22:	80 81       	ld	r24, Z
    1e24:	88 23       	and	r24, r24
    1e26:	b9 f0       	breq	.+46     	; 0x1e56 <vTaskDelete+0xac>
    1e28:	e0 91 7c 14 	lds	r30, 0x147C
    1e2c:	f0 91 7d 14 	lds	r31, 0x147D
    1e30:	05 80       	ldd	r0, Z+5	; 0x05
    1e32:	f6 81       	ldd	r31, Z+6	; 0x06
    1e34:	e0 2d       	mov	r30, r0
    1e36:	06 80       	ldd	r0, Z+6	; 0x06
    1e38:	f7 81       	ldd	r31, Z+7	; 0x07
    1e3a:	e0 2d       	mov	r30, r0
    1e3c:	82 81       	ldd	r24, Z+2	; 0x02
    1e3e:	93 81       	ldd	r25, Z+3	; 0x03
    1e40:	90 93 05 02 	sts	0x0205, r25
    1e44:	80 93 04 02 	sts	0x0204, r24
    1e48:	0f 90       	pop	r0
    1e4a:	0f be       	out	0x3f, r0	; 63
    1e4c:	df 91       	pop	r29
    1e4e:	cf 91       	pop	r28
    1e50:	1f 91       	pop	r17
    1e52:	0f 91       	pop	r16
    1e54:	08 95       	ret
    1e56:	8f ef       	ldi	r24, 0xFF	; 255
    1e58:	9f ef       	ldi	r25, 0xFF	; 255
    1e5a:	90 93 05 02 	sts	0x0205, r25
    1e5e:	80 93 04 02 	sts	0x0204, r24
    1e62:	f2 cf       	rjmp	.-28     	; 0x1e48 <vTaskDelete+0x9e>
    1e64:	c0 91 b4 14 	lds	r28, 0x14B4
    1e68:	d0 91 b5 14 	lds	r29, 0x14B5
    1e6c:	a9 cf       	rjmp	.-174    	; 0x1dc0 <vTaskDelete+0x16>
    1e6e:	0e 94 f7 25 	call	0x4bee	; 0x4bee <vPortYield>
    1e72:	ec cf       	rjmp	.-40     	; 0x1e4c <vTaskDelete+0xa2>

00001e74 <vTaskDelayUntil>:
    1e74:	a0 e0       	ldi	r26, 0x00	; 0
    1e76:	b0 e0       	ldi	r27, 0x00	; 0
    1e78:	e0 e4       	ldi	r30, 0x40	; 64
    1e7a:	ff e0       	ldi	r31, 0x0F	; 15
    1e7c:	0c 94 9a 27 	jmp	0x4f34	; 0x4f34 <__prologue_saves__+0x10>
    1e80:	eb 01       	movw	r28, r22
    1e82:	20 91 54 14 	lds	r18, 0x1454
    1e86:	2f 5f       	subi	r18, 0xFF	; 255
    1e88:	20 93 54 14 	sts	0x1454, r18
    1e8c:	40 91 5b 14 	lds	r20, 0x145B
    1e90:	50 91 5c 14 	lds	r21, 0x145C
    1e94:	fc 01       	movw	r30, r24
    1e96:	20 81       	ld	r18, Z
    1e98:	31 81       	ldd	r19, Z+1	; 0x01
    1e9a:	c2 0f       	add	r28, r18
    1e9c:	d3 1f       	adc	r29, r19
    1e9e:	42 17       	cp	r20, r18
    1ea0:	53 07       	cpc	r21, r19
    1ea2:	08 f0       	brcs	.+2      	; 0x1ea6 <vTaskDelayUntil+0x32>
    1ea4:	d3 c0       	rjmp	.+422    	; 0x204c <vTaskDelayUntil+0x1d8>
    1ea6:	c2 17       	cp	r28, r18
    1ea8:	d3 07       	cpc	r29, r19
    1eaa:	08 f4       	brcc	.+2      	; 0x1eae <vTaskDelayUntil+0x3a>
    1eac:	d2 c0       	rjmp	.+420    	; 0x2052 <vTaskDelayUntil+0x1de>
    1eae:	fc 01       	movw	r30, r24
    1eb0:	d1 83       	std	Z+1, r29	; 0x01
    1eb2:	c0 83       	st	Z, r28
    1eb4:	0f b6       	in	r0, 0x3f	; 63
    1eb6:	f8 94       	cli
    1eb8:	0f 92       	push	r0
    1eba:	80 91 54 14 	lds	r24, 0x1454
    1ebe:	81 50       	subi	r24, 0x01	; 1
    1ec0:	80 93 54 14 	sts	0x1454, r24
    1ec4:	80 91 54 14 	lds	r24, 0x1454
    1ec8:	81 11       	cpse	r24, r1
    1eca:	b4 c0       	rjmp	.+360    	; 0x2034 <vTaskDelayUntil+0x1c0>
    1ecc:	80 91 5d 14 	lds	r24, 0x145D
    1ed0:	88 23       	and	r24, r24
    1ed2:	09 f4       	brne	.+2      	; 0x1ed6 <vTaskDelayUntil+0x62>
    1ed4:	af c0       	rjmp	.+350    	; 0x2034 <vTaskDelayUntil+0x1c0>
    1ed6:	ff 24       	eor	r15, r15
    1ed8:	f3 94       	inc	r15
    1eda:	2f c0       	rjmp	.+94     	; 0x1f3a <vTaskDelayUntil+0xc6>
    1edc:	e0 91 76 14 	lds	r30, 0x1476
    1ee0:	f0 91 77 14 	lds	r31, 0x1477
    1ee4:	c6 81       	ldd	r28, Z+6	; 0x06
    1ee6:	d7 81       	ldd	r29, Z+7	; 0x07
    1ee8:	ce 01       	movw	r24, r28
    1eea:	0c 96       	adiw	r24, 0x0c	; 12
    1eec:	0e 94 38 27 	call	0x4e70	; 0x4e70 <uxListRemove>
    1ef0:	8e 01       	movw	r16, r28
    1ef2:	0e 5f       	subi	r16, 0xFE	; 254
    1ef4:	1f 4f       	sbci	r17, 0xFF	; 255
    1ef6:	c8 01       	movw	r24, r16
    1ef8:	0e 94 38 27 	call	0x4e70	; 0x4e70 <uxListRemove>
    1efc:	2e 89       	ldd	r18, Y+22	; 0x16
    1efe:	80 91 5a 14 	lds	r24, 0x145A
    1f02:	82 17       	cp	r24, r18
    1f04:	10 f4       	brcc	.+4      	; 0x1f0a <vTaskDelayUntil+0x96>
    1f06:	20 93 5a 14 	sts	0x145A, r18
    1f0a:	30 e0       	ldi	r19, 0x00	; 0
    1f0c:	c9 01       	movw	r24, r18
    1f0e:	88 0f       	add	r24, r24
    1f10:	99 1f       	adc	r25, r25
    1f12:	88 0f       	add	r24, r24
    1f14:	99 1f       	adc	r25, r25
    1f16:	88 0f       	add	r24, r24
    1f18:	99 1f       	adc	r25, r25
    1f1a:	82 0f       	add	r24, r18
    1f1c:	93 1f       	adc	r25, r19
    1f1e:	b8 01       	movw	r22, r16
    1f20:	80 57       	subi	r24, 0x70	; 112
    1f22:	9b 4e       	sbci	r25, 0xEB	; 235
    1f24:	0e 94 e6 26 	call	0x4dcc	; 0x4dcc <vListInsertEnd>
    1f28:	e0 91 b4 14 	lds	r30, 0x14B4
    1f2c:	f0 91 b5 14 	lds	r31, 0x14B5
    1f30:	9e 89       	ldd	r25, Y+22	; 0x16
    1f32:	86 89       	ldd	r24, Z+22	; 0x16
    1f34:	98 17       	cp	r25, r24
    1f36:	08 f0       	brcs	.+2      	; 0x1f3a <vTaskDelayUntil+0xc6>
    1f38:	c0 c0       	rjmp	.+384    	; 0x20ba <vTaskDelayUntil+0x246>
    1f3a:	80 91 71 14 	lds	r24, 0x1471
    1f3e:	81 11       	cpse	r24, r1
    1f40:	cd cf       	rjmp	.-102    	; 0x1edc <vTaskDelayUntil+0x68>
    1f42:	80 91 58 14 	lds	r24, 0x1458
    1f46:	88 23       	and	r24, r24
    1f48:	09 f4       	brne	.+2      	; 0x1f4c <vTaskDelayUntil+0xd8>
    1f4a:	6f c0       	rjmp	.+222    	; 0x202a <vTaskDelayUntil+0x1b6>
    1f4c:	80 91 58 14 	lds	r24, 0x1458
    1f50:	88 23       	and	r24, r24
    1f52:	09 f4       	brne	.+2      	; 0x1f56 <vTaskDelayUntil+0xe2>
    1f54:	6a c0       	rjmp	.+212    	; 0x202a <vTaskDelayUntil+0x1b6>
    1f56:	aa 24       	eor	r10, r10
    1f58:	a3 94       	inc	r10
    1f5a:	cc 24       	eor	r12, r12
    1f5c:	ca 94       	dec	r12
    1f5e:	dc 2c       	mov	r13, r12
    1f60:	80 91 54 14 	lds	r24, 0x1454
    1f64:	81 11       	cpse	r24, r1
    1f66:	0b c1       	rjmp	.+534    	; 0x217e <vTaskDelayUntil+0x30a>
    1f68:	80 91 5b 14 	lds	r24, 0x145B
    1f6c:	90 91 5c 14 	lds	r25, 0x145C
    1f70:	01 96       	adiw	r24, 0x01	; 1
    1f72:	90 93 5c 14 	sts	0x145C, r25
    1f76:	80 93 5b 14 	sts	0x145B, r24
    1f7a:	e0 90 5b 14 	lds	r14, 0x145B
    1f7e:	f0 90 5c 14 	lds	r15, 0x145C
    1f82:	e1 14       	cp	r14, r1
    1f84:	f1 04       	cpc	r15, r1
    1f86:	01 f5       	brne	.+64     	; 0x1fc8 <vTaskDelayUntil+0x154>
    1f88:	80 91 7c 14 	lds	r24, 0x147C
    1f8c:	90 91 7d 14 	lds	r25, 0x147D
    1f90:	20 91 7a 14 	lds	r18, 0x147A
    1f94:	30 91 7b 14 	lds	r19, 0x147B
    1f98:	30 93 7d 14 	sts	0x147D, r19
    1f9c:	20 93 7c 14 	sts	0x147C, r18
    1fa0:	90 93 7b 14 	sts	0x147B, r25
    1fa4:	80 93 7a 14 	sts	0x147A, r24
    1fa8:	80 91 56 14 	lds	r24, 0x1456
    1fac:	8f 5f       	subi	r24, 0xFF	; 255
    1fae:	80 93 56 14 	sts	0x1456, r24
    1fb2:	e0 91 7c 14 	lds	r30, 0x147C
    1fb6:	f0 91 7d 14 	lds	r31, 0x147D
    1fba:	80 81       	ld	r24, Z
    1fbc:	81 11       	cpse	r24, r1
    1fbe:	ec c0       	rjmp	.+472    	; 0x2198 <vTaskDelayUntil+0x324>
    1fc0:	d0 92 05 02 	sts	0x0205, r13
    1fc4:	c0 92 04 02 	sts	0x0204, r12
    1fc8:	80 91 04 02 	lds	r24, 0x0204
    1fcc:	90 91 05 02 	lds	r25, 0x0205
    1fd0:	b1 2c       	mov	r11, r1
    1fd2:	e8 16       	cp	r14, r24
    1fd4:	f9 06       	cpc	r15, r25
    1fd6:	08 f0       	brcs	.+2      	; 0x1fda <vTaskDelayUntil+0x166>
    1fd8:	80 c0       	rjmp	.+256    	; 0x20da <vTaskDelayUntil+0x266>
    1fda:	e0 91 b4 14 	lds	r30, 0x14B4
    1fde:	f0 91 b5 14 	lds	r31, 0x14B5
    1fe2:	86 89       	ldd	r24, Z+22	; 0x16
    1fe4:	90 e0       	ldi	r25, 0x00	; 0
    1fe6:	fc 01       	movw	r30, r24
    1fe8:	ee 0f       	add	r30, r30
    1fea:	ff 1f       	adc	r31, r31
    1fec:	ee 0f       	add	r30, r30
    1fee:	ff 1f       	adc	r31, r31
    1ff0:	ee 0f       	add	r30, r30
    1ff2:	ff 1f       	adc	r31, r31
    1ff4:	e8 0f       	add	r30, r24
    1ff6:	f9 1f       	adc	r31, r25
    1ff8:	e0 57       	subi	r30, 0x70	; 112
    1ffa:	fb 4e       	sbci	r31, 0xEB	; 235
    1ffc:	80 81       	ld	r24, Z
    1ffe:	82 30       	cpi	r24, 0x02	; 2
    2000:	28 f0       	brcs	.+10     	; 0x200c <vTaskDelayUntil+0x198>
    2002:	80 91 57 14 	lds	r24, 0x1457
    2006:	a0 92 57 14 	sts	0x1457, r10
    200a:	06 c0       	rjmp	.+12     	; 0x2018 <vTaskDelayUntil+0x1a4>
    200c:	80 91 57 14 	lds	r24, 0x1457
    2010:	81 11       	cpse	r24, r1
    2012:	f9 cf       	rjmp	.-14     	; 0x2006 <vTaskDelayUntil+0x192>
    2014:	b1 10       	cpse	r11, r1
    2016:	f7 cf       	rjmp	.-18     	; 0x2006 <vTaskDelayUntil+0x192>
    2018:	80 91 58 14 	lds	r24, 0x1458
    201c:	81 50       	subi	r24, 0x01	; 1
    201e:	80 93 58 14 	sts	0x1458, r24
    2022:	80 91 58 14 	lds	r24, 0x1458
    2026:	81 11       	cpse	r24, r1
    2028:	9b cf       	rjmp	.-202    	; 0x1f60 <vTaskDelayUntil+0xec>
    202a:	80 91 57 14 	lds	r24, 0x1457
    202e:	81 30       	cpi	r24, 0x01	; 1
    2030:	09 f4       	brne	.+2      	; 0x2034 <vTaskDelayUntil+0x1c0>
    2032:	c8 c0       	rjmp	.+400    	; 0x21c4 <vTaskDelayUntil+0x350>
    2034:	80 e0       	ldi	r24, 0x00	; 0
    2036:	0f 90       	pop	r0
    2038:	0f be       	out	0x3f, r0	; 63
    203a:	81 11       	cpse	r24, r1
    203c:	02 c0       	rjmp	.+4      	; 0x2042 <vTaskDelayUntil+0x1ce>
    203e:	0e 94 f7 25 	call	0x4bee	; 0x4bee <vPortYield>
    2042:	cd b7       	in	r28, 0x3d	; 61
    2044:	de b7       	in	r29, 0x3e	; 62
    2046:	ea e0       	ldi	r30, 0x0A	; 10
    2048:	0c 94 b6 27 	jmp	0x4f6c	; 0x4f6c <__epilogue_restores__+0x10>
    204c:	c2 17       	cp	r28, r18
    204e:	d3 07       	cpc	r29, r19
    2050:	20 f0       	brcs	.+8      	; 0x205a <vTaskDelayUntil+0x1e6>
    2052:	4c 17       	cp	r20, r28
    2054:	5d 07       	cpc	r21, r29
    2056:	08 f0       	brcs	.+2      	; 0x205a <vTaskDelayUntil+0x1e6>
    2058:	2a cf       	rjmp	.-428    	; 0x1eae <vTaskDelayUntil+0x3a>
    205a:	fc 01       	movw	r30, r24
    205c:	d1 83       	std	Z+1, r29	; 0x01
    205e:	c0 83       	st	Z, r28
    2060:	80 91 b4 14 	lds	r24, 0x14B4
    2064:	90 91 b5 14 	lds	r25, 0x14B5
    2068:	02 96       	adiw	r24, 0x02	; 2
    206a:	0e 94 38 27 	call	0x4e70	; 0x4e70 <uxListRemove>
    206e:	e0 91 b4 14 	lds	r30, 0x14B4
    2072:	f0 91 b5 14 	lds	r31, 0x14B5
    2076:	d3 83       	std	Z+3, r29	; 0x03
    2078:	c2 83       	std	Z+2, r28	; 0x02
    207a:	80 91 5b 14 	lds	r24, 0x145B
    207e:	90 91 5c 14 	lds	r25, 0x145C
    2082:	c8 17       	cp	r28, r24
    2084:	d9 07       	cpc	r29, r25
    2086:	e0 f0       	brcs	.+56     	; 0x20c0 <vTaskDelayUntil+0x24c>
    2088:	60 91 b4 14 	lds	r22, 0x14B4
    208c:	70 91 b5 14 	lds	r23, 0x14B5
    2090:	80 91 7c 14 	lds	r24, 0x147C
    2094:	90 91 7d 14 	lds	r25, 0x147D
    2098:	6e 5f       	subi	r22, 0xFE	; 254
    209a:	7f 4f       	sbci	r23, 0xFF	; 255
    209c:	0e 94 07 27 	call	0x4e0e	; 0x4e0e <vListInsert>
    20a0:	80 91 04 02 	lds	r24, 0x0204
    20a4:	90 91 05 02 	lds	r25, 0x0205
    20a8:	c8 17       	cp	r28, r24
    20aa:	d9 07       	cpc	r29, r25
    20ac:	08 f0       	brcs	.+2      	; 0x20b0 <vTaskDelayUntil+0x23c>
    20ae:	02 cf       	rjmp	.-508    	; 0x1eb4 <vTaskDelayUntil+0x40>
    20b0:	d0 93 05 02 	sts	0x0205, r29
    20b4:	c0 93 04 02 	sts	0x0204, r28
    20b8:	fd ce       	rjmp	.-518    	; 0x1eb4 <vTaskDelayUntil+0x40>
    20ba:	f0 92 57 14 	sts	0x1457, r15
    20be:	3d cf       	rjmp	.-390    	; 0x1f3a <vTaskDelayUntil+0xc6>
    20c0:	60 91 b4 14 	lds	r22, 0x14B4
    20c4:	70 91 b5 14 	lds	r23, 0x14B5
    20c8:	80 91 7a 14 	lds	r24, 0x147A
    20cc:	90 91 7b 14 	lds	r25, 0x147B
    20d0:	6e 5f       	subi	r22, 0xFE	; 254
    20d2:	7f 4f       	sbci	r23, 0xFF	; 255
    20d4:	0e 94 07 27 	call	0x4e0e	; 0x4e0e <vListInsert>
    20d8:	ed ce       	rjmp	.-550    	; 0x1eb4 <vTaskDelayUntil+0x40>
    20da:	e0 91 7c 14 	lds	r30, 0x147C
    20de:	f0 91 7d 14 	lds	r31, 0x147D
    20e2:	80 81       	ld	r24, Z
    20e4:	88 23       	and	r24, r24
    20e6:	09 f4       	brne	.+2      	; 0x20ea <vTaskDelayUntil+0x276>
    20e8:	45 c0       	rjmp	.+138    	; 0x2174 <vTaskDelayUntil+0x300>
    20ea:	e0 91 7c 14 	lds	r30, 0x147C
    20ee:	f0 91 7d 14 	lds	r31, 0x147D
    20f2:	05 80       	ldd	r0, Z+5	; 0x05
    20f4:	f6 81       	ldd	r31, Z+6	; 0x06
    20f6:	e0 2d       	mov	r30, r0
    20f8:	c6 81       	ldd	r28, Z+6	; 0x06
    20fa:	d7 81       	ldd	r29, Z+7	; 0x07
    20fc:	8a 81       	ldd	r24, Y+2	; 0x02
    20fe:	9b 81       	ldd	r25, Y+3	; 0x03
    2100:	e8 16       	cp	r14, r24
    2102:	f9 06       	cpc	r15, r25
    2104:	08 f4       	brcc	.+2      	; 0x2108 <vTaskDelayUntil+0x294>
    2106:	59 c0       	rjmp	.+178    	; 0x21ba <vTaskDelayUntil+0x346>
    2108:	8e 01       	movw	r16, r28
    210a:	0e 5f       	subi	r16, 0xFE	; 254
    210c:	1f 4f       	sbci	r17, 0xFF	; 255
    210e:	c8 01       	movw	r24, r16
    2110:	0e 94 38 27 	call	0x4e70	; 0x4e70 <uxListRemove>
    2114:	8c 89       	ldd	r24, Y+20	; 0x14
    2116:	9d 89       	ldd	r25, Y+21	; 0x15
    2118:	89 2b       	or	r24, r25
    211a:	21 f0       	breq	.+8      	; 0x2124 <vTaskDelayUntil+0x2b0>
    211c:	ce 01       	movw	r24, r28
    211e:	0c 96       	adiw	r24, 0x0c	; 12
    2120:	0e 94 38 27 	call	0x4e70	; 0x4e70 <uxListRemove>
    2124:	2e 89       	ldd	r18, Y+22	; 0x16
    2126:	80 91 5a 14 	lds	r24, 0x145A
    212a:	82 17       	cp	r24, r18
    212c:	10 f4       	brcc	.+4      	; 0x2132 <vTaskDelayUntil+0x2be>
    212e:	20 93 5a 14 	sts	0x145A, r18
    2132:	30 e0       	ldi	r19, 0x00	; 0
    2134:	c9 01       	movw	r24, r18
    2136:	88 0f       	add	r24, r24
    2138:	99 1f       	adc	r25, r25
    213a:	88 0f       	add	r24, r24
    213c:	99 1f       	adc	r25, r25
    213e:	88 0f       	add	r24, r24
    2140:	99 1f       	adc	r25, r25
    2142:	82 0f       	add	r24, r18
    2144:	93 1f       	adc	r25, r19
    2146:	b8 01       	movw	r22, r16
    2148:	80 57       	subi	r24, 0x70	; 112
    214a:	9b 4e       	sbci	r25, 0xEB	; 235
    214c:	0e 94 e6 26 	call	0x4dcc	; 0x4dcc <vListInsertEnd>
    2150:	e0 91 b4 14 	lds	r30, 0x14B4
    2154:	f0 91 b5 14 	lds	r31, 0x14B5
    2158:	9e 89       	ldd	r25, Y+22	; 0x16
    215a:	86 89       	ldd	r24, Z+22	; 0x16
    215c:	98 17       	cp	r25, r24
    215e:	08 f4       	brcc	.+2      	; 0x2162 <vTaskDelayUntil+0x2ee>
    2160:	bc cf       	rjmp	.-136    	; 0x20da <vTaskDelayUntil+0x266>
    2162:	bb 24       	eor	r11, r11
    2164:	b3 94       	inc	r11
    2166:	e0 91 7c 14 	lds	r30, 0x147C
    216a:	f0 91 7d 14 	lds	r31, 0x147D
    216e:	80 81       	ld	r24, Z
    2170:	81 11       	cpse	r24, r1
    2172:	bb cf       	rjmp	.-138    	; 0x20ea <vTaskDelayUntil+0x276>
    2174:	d0 92 05 02 	sts	0x0205, r13
    2178:	c0 92 04 02 	sts	0x0204, r12
    217c:	2e cf       	rjmp	.-420    	; 0x1fda <vTaskDelayUntil+0x166>
    217e:	80 91 58 14 	lds	r24, 0x1458
    2182:	8f 5f       	subi	r24, 0xFF	; 255
    2184:	80 93 58 14 	sts	0x1458, r24
    2188:	80 91 57 14 	lds	r24, 0x1457
    218c:	88 23       	and	r24, r24
    218e:	09 f4       	brne	.+2      	; 0x2192 <vTaskDelayUntil+0x31e>
    2190:	43 cf       	rjmp	.-378    	; 0x2018 <vTaskDelayUntil+0x1a4>
    2192:	a0 92 57 14 	sts	0x1457, r10
    2196:	40 cf       	rjmp	.-384    	; 0x2018 <vTaskDelayUntil+0x1a4>
    2198:	e0 91 7c 14 	lds	r30, 0x147C
    219c:	f0 91 7d 14 	lds	r31, 0x147D
    21a0:	05 80       	ldd	r0, Z+5	; 0x05
    21a2:	f6 81       	ldd	r31, Z+6	; 0x06
    21a4:	e0 2d       	mov	r30, r0
    21a6:	06 80       	ldd	r0, Z+6	; 0x06
    21a8:	f7 81       	ldd	r31, Z+7	; 0x07
    21aa:	e0 2d       	mov	r30, r0
    21ac:	82 81       	ldd	r24, Z+2	; 0x02
    21ae:	93 81       	ldd	r25, Z+3	; 0x03
    21b0:	90 93 05 02 	sts	0x0205, r25
    21b4:	80 93 04 02 	sts	0x0204, r24
    21b8:	07 cf       	rjmp	.-498    	; 0x1fc8 <vTaskDelayUntil+0x154>
    21ba:	90 93 05 02 	sts	0x0205, r25
    21be:	80 93 04 02 	sts	0x0204, r24
    21c2:	0b cf       	rjmp	.-490    	; 0x1fda <vTaskDelayUntil+0x166>
    21c4:	0e 94 f7 25 	call	0x4bee	; 0x4bee <vPortYield>
    21c8:	81 e0       	ldi	r24, 0x01	; 1
    21ca:	35 cf       	rjmp	.-406    	; 0x2036 <vTaskDelayUntil+0x1c2>

000021cc <vTaskDelay>:
    21cc:	a0 e0       	ldi	r26, 0x00	; 0
    21ce:	b0 e0       	ldi	r27, 0x00	; 0
    21d0:	ec ee       	ldi	r30, 0xEC	; 236
    21d2:	f0 e1       	ldi	r31, 0x10	; 16
    21d4:	0c 94 9a 27 	jmp	0x4f34	; 0x4f34 <__prologue_saves__+0x10>
    21d8:	00 97       	sbiw	r24, 0x00	; 0
    21da:	41 f4       	brne	.+16     	; 0x21ec <vTaskDelay+0x20>
    21dc:	0e 94 f7 25 	call	0x4bee	; 0x4bee <vPortYield>
    21e0:	cd b7       	in	r28, 0x3d	; 61
    21e2:	de b7       	in	r29, 0x3e	; 62
    21e4:	ea e0       	ldi	r30, 0x0A	; 10
    21e6:	0c 94 b6 27 	jmp	0x4f6c	; 0x4f6c <__epilogue_restores__+0x10>
    21ea:	89 c1       	rjmp	.+786    	; 0x24fe <vTaskSuspend>
    21ec:	20 91 54 14 	lds	r18, 0x1454
    21f0:	2f 5f       	subi	r18, 0xFF	; 255
    21f2:	20 93 54 14 	sts	0x1454, r18
    21f6:	c0 91 5b 14 	lds	r28, 0x145B
    21fa:	d0 91 5c 14 	lds	r29, 0x145C
    21fe:	c8 0f       	add	r28, r24
    2200:	d9 1f       	adc	r29, r25
    2202:	80 91 b4 14 	lds	r24, 0x14B4
    2206:	90 91 b5 14 	lds	r25, 0x14B5
    220a:	02 96       	adiw	r24, 0x02	; 2
    220c:	0e 94 38 27 	call	0x4e70	; 0x4e70 <uxListRemove>
    2210:	e0 91 b4 14 	lds	r30, 0x14B4
    2214:	f0 91 b5 14 	lds	r31, 0x14B5
    2218:	d3 83       	std	Z+3, r29	; 0x03
    221a:	c2 83       	std	Z+2, r28	; 0x02
    221c:	80 91 5b 14 	lds	r24, 0x145B
    2220:	90 91 5c 14 	lds	r25, 0x145C
    2224:	60 91 b4 14 	lds	r22, 0x14B4
    2228:	70 91 b5 14 	lds	r23, 0x14B5
    222c:	c8 17       	cp	r28, r24
    222e:	d9 07       	cpc	r29, r25
    2230:	08 f4       	brcc	.+2      	; 0x2234 <__stack+0x35>
    2232:	d4 c0       	rjmp	.+424    	; 0x23dc <__stack+0x1dd>
    2234:	80 91 7c 14 	lds	r24, 0x147C
    2238:	90 91 7d 14 	lds	r25, 0x147D
    223c:	6e 5f       	subi	r22, 0xFE	; 254
    223e:	7f 4f       	sbci	r23, 0xFF	; 255
    2240:	0e 94 07 27 	call	0x4e0e	; 0x4e0e <vListInsert>
    2244:	80 91 04 02 	lds	r24, 0x0204
    2248:	90 91 05 02 	lds	r25, 0x0205
    224c:	c8 17       	cp	r28, r24
    224e:	d9 07       	cpc	r29, r25
    2250:	20 f4       	brcc	.+8      	; 0x225a <__stack+0x5b>
    2252:	d0 93 05 02 	sts	0x0205, r29
    2256:	c0 93 04 02 	sts	0x0204, r28
    225a:	0f b6       	in	r0, 0x3f	; 63
    225c:	f8 94       	cli
    225e:	0f 92       	push	r0
    2260:	80 91 54 14 	lds	r24, 0x1454
    2264:	81 50       	subi	r24, 0x01	; 1
    2266:	80 93 54 14 	sts	0x1454, r24
    226a:	80 91 54 14 	lds	r24, 0x1454
    226e:	81 11       	cpse	r24, r1
    2270:	c3 c0       	rjmp	.+390    	; 0x23f8 <__stack+0x1f9>
    2272:	80 91 5d 14 	lds	r24, 0x145D
    2276:	88 23       	and	r24, r24
    2278:	09 f4       	brne	.+2      	; 0x227c <__stack+0x7d>
    227a:	be c0       	rjmp	.+380    	; 0x23f8 <__stack+0x1f9>
    227c:	ff 24       	eor	r15, r15
    227e:	f3 94       	inc	r15
    2280:	2f c0       	rjmp	.+94     	; 0x22e0 <__stack+0xe1>
    2282:	e0 91 76 14 	lds	r30, 0x1476
    2286:	f0 91 77 14 	lds	r31, 0x1477
    228a:	c6 81       	ldd	r28, Z+6	; 0x06
    228c:	d7 81       	ldd	r29, Z+7	; 0x07
    228e:	ce 01       	movw	r24, r28
    2290:	0c 96       	adiw	r24, 0x0c	; 12
    2292:	0e 94 38 27 	call	0x4e70	; 0x4e70 <uxListRemove>
    2296:	8e 01       	movw	r16, r28
    2298:	0e 5f       	subi	r16, 0xFE	; 254
    229a:	1f 4f       	sbci	r17, 0xFF	; 255
    229c:	c8 01       	movw	r24, r16
    229e:	0e 94 38 27 	call	0x4e70	; 0x4e70 <uxListRemove>
    22a2:	2e 89       	ldd	r18, Y+22	; 0x16
    22a4:	80 91 5a 14 	lds	r24, 0x145A
    22a8:	82 17       	cp	r24, r18
    22aa:	10 f4       	brcc	.+4      	; 0x22b0 <__stack+0xb1>
    22ac:	20 93 5a 14 	sts	0x145A, r18
    22b0:	30 e0       	ldi	r19, 0x00	; 0
    22b2:	c9 01       	movw	r24, r18
    22b4:	88 0f       	add	r24, r24
    22b6:	99 1f       	adc	r25, r25
    22b8:	88 0f       	add	r24, r24
    22ba:	99 1f       	adc	r25, r25
    22bc:	88 0f       	add	r24, r24
    22be:	99 1f       	adc	r25, r25
    22c0:	82 0f       	add	r24, r18
    22c2:	93 1f       	adc	r25, r19
    22c4:	b8 01       	movw	r22, r16
    22c6:	80 57       	subi	r24, 0x70	; 112
    22c8:	9b 4e       	sbci	r25, 0xEB	; 235
    22ca:	0e 94 e6 26 	call	0x4dcc	; 0x4dcc <vListInsertEnd>
    22ce:	e0 91 b4 14 	lds	r30, 0x14B4
    22d2:	f0 91 b5 14 	lds	r31, 0x14B5
    22d6:	9e 89       	ldd	r25, Y+22	; 0x16
    22d8:	86 89       	ldd	r24, Z+22	; 0x16
    22da:	98 17       	cp	r25, r24
    22dc:	08 f0       	brcs	.+2      	; 0x22e0 <__stack+0xe1>
    22de:	98 c0       	rjmp	.+304    	; 0x2410 <__stack+0x211>
    22e0:	80 91 71 14 	lds	r24, 0x1471
    22e4:	81 11       	cpse	r24, r1
    22e6:	cd cf       	rjmp	.-102    	; 0x2282 <__stack+0x83>
    22e8:	80 91 58 14 	lds	r24, 0x1458
    22ec:	88 23       	and	r24, r24
    22ee:	09 f4       	brne	.+2      	; 0x22f2 <__stack+0xf3>
    22f0:	7e c0       	rjmp	.+252    	; 0x23ee <__stack+0x1ef>
    22f2:	80 91 58 14 	lds	r24, 0x1458
    22f6:	88 23       	and	r24, r24
    22f8:	09 f4       	brne	.+2      	; 0x22fc <__stack+0xfd>
    22fa:	79 c0       	rjmp	.+242    	; 0x23ee <__stack+0x1ef>
    22fc:	aa 24       	eor	r10, r10
    22fe:	a3 94       	inc	r10
    2300:	cc 24       	eor	r12, r12
    2302:	ca 94       	dec	r12
    2304:	dc 2c       	mov	r13, r12
    2306:	5b c0       	rjmp	.+182    	; 0x23be <__stack+0x1bf>
    2308:	80 91 5b 14 	lds	r24, 0x145B
    230c:	90 91 5c 14 	lds	r25, 0x145C
    2310:	01 96       	adiw	r24, 0x01	; 1
    2312:	90 93 5c 14 	sts	0x145C, r25
    2316:	80 93 5b 14 	sts	0x145B, r24
    231a:	e0 90 5b 14 	lds	r14, 0x145B
    231e:	f0 90 5c 14 	lds	r15, 0x145C
    2322:	e1 14       	cp	r14, r1
    2324:	f1 04       	cpc	r15, r1
    2326:	01 f5       	brne	.+64     	; 0x2368 <__stack+0x169>
    2328:	80 91 7c 14 	lds	r24, 0x147C
    232c:	90 91 7d 14 	lds	r25, 0x147D
    2330:	20 91 7a 14 	lds	r18, 0x147A
    2334:	30 91 7b 14 	lds	r19, 0x147B
    2338:	30 93 7d 14 	sts	0x147D, r19
    233c:	20 93 7c 14 	sts	0x147C, r18
    2340:	90 93 7b 14 	sts	0x147B, r25
    2344:	80 93 7a 14 	sts	0x147A, r24
    2348:	80 91 56 14 	lds	r24, 0x1456
    234c:	8f 5f       	subi	r24, 0xFF	; 255
    234e:	80 93 56 14 	sts	0x1456, r24
    2352:	e0 91 7c 14 	lds	r30, 0x147C
    2356:	f0 91 7d 14 	lds	r31, 0x147D
    235a:	80 81       	ld	r24, Z
    235c:	81 11       	cpse	r24, r1
    235e:	b9 c0       	rjmp	.+370    	; 0x24d2 <__stack+0x2d3>
    2360:	d0 92 05 02 	sts	0x0205, r13
    2364:	c0 92 04 02 	sts	0x0204, r12
    2368:	80 91 04 02 	lds	r24, 0x0204
    236c:	90 91 05 02 	lds	r25, 0x0205
    2370:	b1 2c       	mov	r11, r1
    2372:	e8 16       	cp	r14, r24
    2374:	f9 06       	cpc	r15, r25
    2376:	08 f0       	brcs	.+2      	; 0x237a <__stack+0x17b>
    2378:	4e c0       	rjmp	.+156    	; 0x2416 <__stack+0x217>
    237a:	e0 91 b4 14 	lds	r30, 0x14B4
    237e:	f0 91 b5 14 	lds	r31, 0x14B5
    2382:	86 89       	ldd	r24, Z+22	; 0x16
    2384:	90 e0       	ldi	r25, 0x00	; 0
    2386:	fc 01       	movw	r30, r24
    2388:	ee 0f       	add	r30, r30
    238a:	ff 1f       	adc	r31, r31
    238c:	ee 0f       	add	r30, r30
    238e:	ff 1f       	adc	r31, r31
    2390:	ee 0f       	add	r30, r30
    2392:	ff 1f       	adc	r31, r31
    2394:	e8 0f       	add	r30, r24
    2396:	f9 1f       	adc	r31, r25
    2398:	e0 57       	subi	r30, 0x70	; 112
    239a:	fb 4e       	sbci	r31, 0xEB	; 235
    239c:	80 81       	ld	r24, Z
    239e:	82 30       	cpi	r24, 0x02	; 2
    23a0:	08 f4       	brcc	.+2      	; 0x23a4 <__stack+0x1a5>
    23a2:	8f c0       	rjmp	.+286    	; 0x24c2 <__stack+0x2c3>
    23a4:	80 91 57 14 	lds	r24, 0x1457
    23a8:	a0 92 57 14 	sts	0x1457, r10
    23ac:	80 91 58 14 	lds	r24, 0x1458
    23b0:	81 50       	subi	r24, 0x01	; 1
    23b2:	80 93 58 14 	sts	0x1458, r24
    23b6:	80 91 58 14 	lds	r24, 0x1458
    23ba:	88 23       	and	r24, r24
    23bc:	c1 f0       	breq	.+48     	; 0x23ee <__stack+0x1ef>
    23be:	80 91 54 14 	lds	r24, 0x1454
    23c2:	88 23       	and	r24, r24
    23c4:	09 f4       	brne	.+2      	; 0x23c8 <__stack+0x1c9>
    23c6:	a0 cf       	rjmp	.-192    	; 0x2308 <__stack+0x109>
    23c8:	80 91 58 14 	lds	r24, 0x1458
    23cc:	8f 5f       	subi	r24, 0xFF	; 255
    23ce:	80 93 58 14 	sts	0x1458, r24
    23d2:	80 91 57 14 	lds	r24, 0x1457
    23d6:	81 11       	cpse	r24, r1
    23d8:	e7 cf       	rjmp	.-50     	; 0x23a8 <__stack+0x1a9>
    23da:	e8 cf       	rjmp	.-48     	; 0x23ac <__stack+0x1ad>
    23dc:	80 91 7a 14 	lds	r24, 0x147A
    23e0:	90 91 7b 14 	lds	r25, 0x147B
    23e4:	6e 5f       	subi	r22, 0xFE	; 254
    23e6:	7f 4f       	sbci	r23, 0xFF	; 255
    23e8:	0e 94 07 27 	call	0x4e0e	; 0x4e0e <vListInsert>
    23ec:	36 cf       	rjmp	.-404    	; 0x225a <__stack+0x5b>
    23ee:	80 91 57 14 	lds	r24, 0x1457
    23f2:	81 30       	cpi	r24, 0x01	; 1
    23f4:	09 f4       	brne	.+2      	; 0x23f8 <__stack+0x1f9>
    23f6:	61 c0       	rjmp	.+194    	; 0x24ba <__stack+0x2bb>
    23f8:	80 e0       	ldi	r24, 0x00	; 0
    23fa:	0f 90       	pop	r0
    23fc:	0f be       	out	0x3f, r0	; 63
    23fe:	88 23       	and	r24, r24
    2400:	09 f4       	brne	.+2      	; 0x2404 <__stack+0x205>
    2402:	ec ce       	rjmp	.-552    	; 0x21dc <vTaskDelay+0x10>
    2404:	cd b7       	in	r28, 0x3d	; 61
    2406:	de b7       	in	r29, 0x3e	; 62
    2408:	ea e0       	ldi	r30, 0x0A	; 10
    240a:	0c 94 b6 27 	jmp	0x4f6c	; 0x4f6c <__epilogue_restores__+0x10>
    240e:	77 c0       	rjmp	.+238    	; 0x24fe <vTaskSuspend>
    2410:	f0 92 57 14 	sts	0x1457, r15
    2414:	65 cf       	rjmp	.-310    	; 0x22e0 <__stack+0xe1>
    2416:	e0 91 7c 14 	lds	r30, 0x147C
    241a:	f0 91 7d 14 	lds	r31, 0x147D
    241e:	80 81       	ld	r24, Z
    2420:	88 23       	and	r24, r24
    2422:	09 f4       	brne	.+2      	; 0x2426 <__stack+0x227>
    2424:	45 c0       	rjmp	.+138    	; 0x24b0 <__stack+0x2b1>
    2426:	e0 91 7c 14 	lds	r30, 0x147C
    242a:	f0 91 7d 14 	lds	r31, 0x147D
    242e:	05 80       	ldd	r0, Z+5	; 0x05
    2430:	f6 81       	ldd	r31, Z+6	; 0x06
    2432:	e0 2d       	mov	r30, r0
    2434:	c6 81       	ldd	r28, Z+6	; 0x06
    2436:	d7 81       	ldd	r29, Z+7	; 0x07
    2438:	8a 81       	ldd	r24, Y+2	; 0x02
    243a:	9b 81       	ldd	r25, Y+3	; 0x03
    243c:	e8 16       	cp	r14, r24
    243e:	f9 06       	cpc	r15, r25
    2440:	08 f4       	brcc	.+2      	; 0x2444 <__stack+0x245>
    2442:	58 c0       	rjmp	.+176    	; 0x24f4 <__stack+0x2f5>
    2444:	8e 01       	movw	r16, r28
    2446:	0e 5f       	subi	r16, 0xFE	; 254
    2448:	1f 4f       	sbci	r17, 0xFF	; 255
    244a:	c8 01       	movw	r24, r16
    244c:	0e 94 38 27 	call	0x4e70	; 0x4e70 <uxListRemove>
    2450:	8c 89       	ldd	r24, Y+20	; 0x14
    2452:	9d 89       	ldd	r25, Y+21	; 0x15
    2454:	89 2b       	or	r24, r25
    2456:	21 f0       	breq	.+8      	; 0x2460 <__stack+0x261>
    2458:	ce 01       	movw	r24, r28
    245a:	0c 96       	adiw	r24, 0x0c	; 12
    245c:	0e 94 38 27 	call	0x4e70	; 0x4e70 <uxListRemove>
    2460:	2e 89       	ldd	r18, Y+22	; 0x16
    2462:	80 91 5a 14 	lds	r24, 0x145A
    2466:	82 17       	cp	r24, r18
    2468:	10 f4       	brcc	.+4      	; 0x246e <__stack+0x26f>
    246a:	20 93 5a 14 	sts	0x145A, r18
    246e:	30 e0       	ldi	r19, 0x00	; 0
    2470:	c9 01       	movw	r24, r18
    2472:	88 0f       	add	r24, r24
    2474:	99 1f       	adc	r25, r25
    2476:	88 0f       	add	r24, r24
    2478:	99 1f       	adc	r25, r25
    247a:	88 0f       	add	r24, r24
    247c:	99 1f       	adc	r25, r25
    247e:	82 0f       	add	r24, r18
    2480:	93 1f       	adc	r25, r19
    2482:	b8 01       	movw	r22, r16
    2484:	80 57       	subi	r24, 0x70	; 112
    2486:	9b 4e       	sbci	r25, 0xEB	; 235
    2488:	0e 94 e6 26 	call	0x4dcc	; 0x4dcc <vListInsertEnd>
    248c:	e0 91 b4 14 	lds	r30, 0x14B4
    2490:	f0 91 b5 14 	lds	r31, 0x14B5
    2494:	9e 89       	ldd	r25, Y+22	; 0x16
    2496:	86 89       	ldd	r24, Z+22	; 0x16
    2498:	98 17       	cp	r25, r24
    249a:	08 f4       	brcc	.+2      	; 0x249e <__stack+0x29f>
    249c:	bc cf       	rjmp	.-136    	; 0x2416 <__stack+0x217>
    249e:	bb 24       	eor	r11, r11
    24a0:	b3 94       	inc	r11
    24a2:	e0 91 7c 14 	lds	r30, 0x147C
    24a6:	f0 91 7d 14 	lds	r31, 0x147D
    24aa:	80 81       	ld	r24, Z
    24ac:	81 11       	cpse	r24, r1
    24ae:	bb cf       	rjmp	.-138    	; 0x2426 <__stack+0x227>
    24b0:	d0 92 05 02 	sts	0x0205, r13
    24b4:	c0 92 04 02 	sts	0x0204, r12
    24b8:	60 cf       	rjmp	.-320    	; 0x237a <__stack+0x17b>
    24ba:	0e 94 f7 25 	call	0x4bee	; 0x4bee <vPortYield>
    24be:	81 e0       	ldi	r24, 0x01	; 1
    24c0:	9c cf       	rjmp	.-200    	; 0x23fa <__stack+0x1fb>
    24c2:	80 91 57 14 	lds	r24, 0x1457
    24c6:	81 11       	cpse	r24, r1
    24c8:	6f cf       	rjmp	.-290    	; 0x23a8 <__stack+0x1a9>
    24ca:	bb 20       	and	r11, r11
    24cc:	09 f4       	brne	.+2      	; 0x24d0 <__stack+0x2d1>
    24ce:	6e cf       	rjmp	.-292    	; 0x23ac <__stack+0x1ad>
    24d0:	6b cf       	rjmp	.-298    	; 0x23a8 <__stack+0x1a9>
    24d2:	e0 91 7c 14 	lds	r30, 0x147C
    24d6:	f0 91 7d 14 	lds	r31, 0x147D
    24da:	05 80       	ldd	r0, Z+5	; 0x05
    24dc:	f6 81       	ldd	r31, Z+6	; 0x06
    24de:	e0 2d       	mov	r30, r0
    24e0:	06 80       	ldd	r0, Z+6	; 0x06
    24e2:	f7 81       	ldd	r31, Z+7	; 0x07
    24e4:	e0 2d       	mov	r30, r0
    24e6:	82 81       	ldd	r24, Z+2	; 0x02
    24e8:	93 81       	ldd	r25, Z+3	; 0x03
    24ea:	90 93 05 02 	sts	0x0205, r25
    24ee:	80 93 04 02 	sts	0x0204, r24
    24f2:	3a cf       	rjmp	.-396    	; 0x2368 <__stack+0x169>
    24f4:	90 93 05 02 	sts	0x0205, r25
    24f8:	80 93 04 02 	sts	0x0204, r24
    24fc:	3e cf       	rjmp	.-388    	; 0x237a <__stack+0x17b>

000024fe <vTaskSuspend>:
    24fe:	0f 93       	push	r16
    2500:	1f 93       	push	r17
    2502:	cf 93       	push	r28
    2504:	df 93       	push	r29
    2506:	ec 01       	movw	r28, r24
    2508:	0f b6       	in	r0, 0x3f	; 63
    250a:	f8 94       	cli
    250c:	0f 92       	push	r0
    250e:	00 97       	sbiw	r24, 0x00	; 0
    2510:	09 f4       	brne	.+2      	; 0x2514 <vTaskSuspend+0x16>
    2512:	e8 c0       	rjmp	.+464    	; 0x26e4 <vTaskSuspend+0x1e6>
    2514:	8e 01       	movw	r16, r28
    2516:	0e 5f       	subi	r16, 0xFE	; 254
    2518:	1f 4f       	sbci	r17, 0xFF	; 255
    251a:	c8 01       	movw	r24, r16
    251c:	0e 94 38 27 	call	0x4e70	; 0x4e70 <uxListRemove>
    2520:	8c 89       	ldd	r24, Y+20	; 0x14
    2522:	9d 89       	ldd	r25, Y+21	; 0x15
    2524:	89 2b       	or	r24, r25
    2526:	21 f0       	breq	.+8      	; 0x2530 <vTaskSuspend+0x32>
    2528:	ce 01       	movw	r24, r28
    252a:	0c 96       	adiw	r24, 0x0c	; 12
    252c:	0e 94 38 27 	call	0x4e70	; 0x4e70 <uxListRemove>
    2530:	b8 01       	movw	r22, r16
    2532:	8e e5       	ldi	r24, 0x5E	; 94
    2534:	94 e1       	ldi	r25, 0x14	; 20
    2536:	0e 94 e6 26 	call	0x4dcc	; 0x4dcc <vListInsertEnd>
    253a:	0f 90       	pop	r0
    253c:	0f be       	out	0x3f, r0	; 63
    253e:	80 91 b4 14 	lds	r24, 0x14B4
    2542:	90 91 b5 14 	lds	r25, 0x14B5
    2546:	c8 17       	cp	r28, r24
    2548:	d9 07       	cpc	r29, r25
    254a:	61 f1       	breq	.+88     	; 0x25a4 <vTaskSuspend+0xa6>
    254c:	80 91 59 14 	lds	r24, 0x1459
    2550:	88 23       	and	r24, r24
    2552:	e1 f0       	breq	.+56     	; 0x258c <vTaskSuspend+0x8e>
    2554:	0f b6       	in	r0, 0x3f	; 63
    2556:	f8 94       	cli
    2558:	0f 92       	push	r0
    255a:	e0 91 7c 14 	lds	r30, 0x147C
    255e:	f0 91 7d 14 	lds	r31, 0x147D
    2562:	80 81       	ld	r24, Z
    2564:	88 23       	and	r24, r24
    2566:	b9 f0       	breq	.+46     	; 0x2596 <vTaskSuspend+0x98>
    2568:	e0 91 7c 14 	lds	r30, 0x147C
    256c:	f0 91 7d 14 	lds	r31, 0x147D
    2570:	05 80       	ldd	r0, Z+5	; 0x05
    2572:	f6 81       	ldd	r31, Z+6	; 0x06
    2574:	e0 2d       	mov	r30, r0
    2576:	06 80       	ldd	r0, Z+6	; 0x06
    2578:	f7 81       	ldd	r31, Z+7	; 0x07
    257a:	e0 2d       	mov	r30, r0
    257c:	82 81       	ldd	r24, Z+2	; 0x02
    257e:	93 81       	ldd	r25, Z+3	; 0x03
    2580:	90 93 05 02 	sts	0x0205, r25
    2584:	80 93 04 02 	sts	0x0204, r24
    2588:	0f 90       	pop	r0
    258a:	0f be       	out	0x3f, r0	; 63
    258c:	df 91       	pop	r29
    258e:	cf 91       	pop	r28
    2590:	1f 91       	pop	r17
    2592:	0f 91       	pop	r16
    2594:	08 95       	ret
    2596:	8f ef       	ldi	r24, 0xFF	; 255
    2598:	9f ef       	ldi	r25, 0xFF	; 255
    259a:	90 93 05 02 	sts	0x0205, r25
    259e:	80 93 04 02 	sts	0x0204, r24
    25a2:	f2 cf       	rjmp	.-28     	; 0x2588 <vTaskSuspend+0x8a>
    25a4:	80 91 59 14 	lds	r24, 0x1459
    25a8:	81 11       	cpse	r24, r1
    25aa:	af c0       	rjmp	.+350    	; 0x270a <vTaskSuspend+0x20c>
    25ac:	80 91 5d 14 	lds	r24, 0x145D
    25b0:	90 91 5e 14 	lds	r25, 0x145E
    25b4:	98 17       	cp	r25, r24
    25b6:	09 f4       	brne	.+2      	; 0x25ba <vTaskSuspend+0xbc>
    25b8:	ab c0       	rjmp	.+342    	; 0x2710 <vTaskSuspend+0x212>
    25ba:	80 91 54 14 	lds	r24, 0x1454
    25be:	81 11       	cpse	r24, r1
    25c0:	a0 c0       	rjmp	.+320    	; 0x2702 <vTaskSuspend+0x204>
    25c2:	10 92 57 14 	sts	0x1457, r1
    25c6:	80 91 84 00 	lds	r24, 0x0084
    25ca:	90 91 85 00 	lds	r25, 0x0085
    25ce:	a0 e0       	ldi	r26, 0x00	; 0
    25d0:	b0 e0       	ldi	r27, 0x00	; 0
    25d2:	80 93 4c 14 	sts	0x144C, r24
    25d6:	90 93 4d 14 	sts	0x144D, r25
    25da:	a0 93 4e 14 	sts	0x144E, r26
    25de:	b0 93 4f 14 	sts	0x144F, r27
    25e2:	40 91 50 14 	lds	r20, 0x1450
    25e6:	50 91 51 14 	lds	r21, 0x1451
    25ea:	60 91 52 14 	lds	r22, 0x1452
    25ee:	70 91 53 14 	lds	r23, 0x1453
    25f2:	48 17       	cp	r20, r24
    25f4:	59 07       	cpc	r21, r25
    25f6:	6a 07       	cpc	r22, r26
    25f8:	7b 07       	cpc	r23, r27
    25fa:	b0 f4       	brcc	.+44     	; 0x2628 <vTaskSuspend+0x12a>
    25fc:	e0 91 b4 14 	lds	r30, 0x14B4
    2600:	f0 91 b5 14 	lds	r31, 0x14B5
    2604:	8c 01       	movw	r16, r24
    2606:	9d 01       	movw	r18, r26
    2608:	04 1b       	sub	r16, r20
    260a:	15 0b       	sbc	r17, r21
    260c:	26 0b       	sbc	r18, r22
    260e:	37 0b       	sbc	r19, r23
    2610:	44 a1       	ldd	r20, Z+36	; 0x24
    2612:	55 a1       	ldd	r21, Z+37	; 0x25
    2614:	66 a1       	ldd	r22, Z+38	; 0x26
    2616:	77 a1       	ldd	r23, Z+39	; 0x27
    2618:	40 0f       	add	r20, r16
    261a:	51 1f       	adc	r21, r17
    261c:	62 1f       	adc	r22, r18
    261e:	73 1f       	adc	r23, r19
    2620:	44 a3       	std	Z+36, r20	; 0x24
    2622:	55 a3       	std	Z+37, r21	; 0x25
    2624:	66 a3       	std	Z+38, r22	; 0x26
    2626:	77 a3       	std	Z+39, r23	; 0x27
    2628:	80 93 50 14 	sts	0x1450, r24
    262c:	90 93 51 14 	sts	0x1451, r25
    2630:	a0 93 52 14 	sts	0x1452, r26
    2634:	b0 93 53 14 	sts	0x1453, r27
    2638:	a0 91 b4 14 	lds	r26, 0x14B4
    263c:	b0 91 b5 14 	lds	r27, 0x14B5
    2640:	e0 91 b4 14 	lds	r30, 0x14B4
    2644:	f0 91 b5 14 	lds	r31, 0x14B5
    2648:	2d 91       	ld	r18, X+
    264a:	3c 91       	ld	r19, X
    264c:	87 89       	ldd	r24, Z+23	; 0x17
    264e:	90 8d       	ldd	r25, Z+24	; 0x18
    2650:	82 17       	cp	r24, r18
    2652:	93 07       	cpc	r25, r19
    2654:	90 f0       	brcs	.+36     	; 0x267a <vTaskSuspend+0x17c>
    2656:	60 91 b4 14 	lds	r22, 0x14B4
    265a:	70 91 b5 14 	lds	r23, 0x14B5
    265e:	80 91 b4 14 	lds	r24, 0x14B4
    2662:	90 91 b5 14 	lds	r25, 0x14B5
    2666:	67 5e       	subi	r22, 0xE7	; 231
    2668:	7f 4f       	sbci	r23, 0xFF	; 255
    266a:	0e 94 30 03 	call	0x660	; 0x660 <vApplicationStackOverflowHook>
    266e:	05 c0       	rjmp	.+10     	; 0x267a <vTaskSuspend+0x17c>
    2670:	80 91 5a 14 	lds	r24, 0x145A
    2674:	81 50       	subi	r24, 0x01	; 1
    2676:	80 93 5a 14 	sts	0x145A, r24
    267a:	80 91 5a 14 	lds	r24, 0x145A
    267e:	90 e0       	ldi	r25, 0x00	; 0
    2680:	fc 01       	movw	r30, r24
    2682:	ee 0f       	add	r30, r30
    2684:	ff 1f       	adc	r31, r31
    2686:	ee 0f       	add	r30, r30
    2688:	ff 1f       	adc	r31, r31
    268a:	ee 0f       	add	r30, r30
    268c:	ff 1f       	adc	r31, r31
    268e:	e8 0f       	add	r30, r24
    2690:	f9 1f       	adc	r31, r25
    2692:	e0 57       	subi	r30, 0x70	; 112
    2694:	fb 4e       	sbci	r31, 0xEB	; 235
    2696:	80 81       	ld	r24, Z
    2698:	88 23       	and	r24, r24
    269a:	51 f3       	breq	.-44     	; 0x2670 <vTaskSuspend+0x172>
    269c:	80 91 5a 14 	lds	r24, 0x145A
    26a0:	90 e0       	ldi	r25, 0x00	; 0
    26a2:	fc 01       	movw	r30, r24
    26a4:	ee 0f       	add	r30, r30
    26a6:	ff 1f       	adc	r31, r31
    26a8:	ee 0f       	add	r30, r30
    26aa:	ff 1f       	adc	r31, r31
    26ac:	ee 0f       	add	r30, r30
    26ae:	ff 1f       	adc	r31, r31
    26b0:	e8 0f       	add	r30, r24
    26b2:	f9 1f       	adc	r31, r25
    26b4:	e0 57       	subi	r30, 0x70	; 112
    26b6:	fb 4e       	sbci	r31, 0xEB	; 235
    26b8:	a1 81       	ldd	r26, Z+1	; 0x01
    26ba:	b2 81       	ldd	r27, Z+2	; 0x02
    26bc:	12 96       	adiw	r26, 0x02	; 2
    26be:	0d 90       	ld	r0, X+
    26c0:	bc 91       	ld	r27, X
    26c2:	a0 2d       	mov	r26, r0
    26c4:	b2 83       	std	Z+2, r27	; 0x02
    26c6:	a1 83       	std	Z+1, r26	; 0x01
    26c8:	cf 01       	movw	r24, r30
    26ca:	03 96       	adiw	r24, 0x03	; 3
    26cc:	a8 17       	cp	r26, r24
    26ce:	b9 07       	cpc	r27, r25
    26d0:	71 f0       	breq	.+28     	; 0x26ee <vTaskSuspend+0x1f0>
    26d2:	16 96       	adiw	r26, 0x06	; 6
    26d4:	8d 91       	ld	r24, X+
    26d6:	9c 91       	ld	r25, X
    26d8:	17 97       	sbiw	r26, 0x07	; 7
    26da:	90 93 b5 14 	sts	0x14B5, r25
    26de:	80 93 b4 14 	sts	0x14B4, r24
    26e2:	54 cf       	rjmp	.-344    	; 0x258c <vTaskSuspend+0x8e>
    26e4:	c0 91 b4 14 	lds	r28, 0x14B4
    26e8:	d0 91 b5 14 	lds	r29, 0x14B5
    26ec:	13 cf       	rjmp	.-474    	; 0x2514 <vTaskSuspend+0x16>
    26ee:	12 96       	adiw	r26, 0x02	; 2
    26f0:	9c 91       	ld	r25, X
    26f2:	12 97       	sbiw	r26, 0x02	; 2
    26f4:	13 96       	adiw	r26, 0x03	; 3
    26f6:	8c 91       	ld	r24, X
    26f8:	91 83       	std	Z+1, r25	; 0x01
    26fa:	82 83       	std	Z+2, r24	; 0x02
    26fc:	a9 2f       	mov	r26, r25
    26fe:	b8 2f       	mov	r27, r24
    2700:	e8 cf       	rjmp	.-48     	; 0x26d2 <vTaskSuspend+0x1d4>
    2702:	81 e0       	ldi	r24, 0x01	; 1
    2704:	80 93 57 14 	sts	0x1457, r24
    2708:	41 cf       	rjmp	.-382    	; 0x258c <vTaskSuspend+0x8e>
    270a:	0e 94 f7 25 	call	0x4bee	; 0x4bee <vPortYield>
    270e:	3e cf       	rjmp	.-388    	; 0x258c <vTaskSuspend+0x8e>
    2710:	10 92 b5 14 	sts	0x14B5, r1
    2714:	10 92 b4 14 	sts	0x14B4, r1
    2718:	39 cf       	rjmp	.-398    	; 0x258c <vTaskSuspend+0x8e>

0000271a <vTaskResume>:
    271a:	a2 e0       	ldi	r26, 0x02	; 2
    271c:	b0 e0       	ldi	r27, 0x00	; 0
    271e:	e3 e9       	ldi	r30, 0x93	; 147
    2720:	f3 e1       	ldi	r31, 0x13	; 19
    2722:	0c 94 a0 27 	jmp	0x4f40	; 0x4f40 <__prologue_saves__+0x1c>
    2726:	8c 01       	movw	r16, r24
    2728:	00 97       	sbiw	r24, 0x00	; 0
    272a:	a1 f0       	breq	.+40     	; 0x2754 <vTaskResume+0x3a>
    272c:	80 91 b4 14 	lds	r24, 0x14B4
    2730:	90 91 b5 14 	lds	r25, 0x14B5
    2734:	08 17       	cp	r16, r24
    2736:	19 07       	cpc	r17, r25
    2738:	69 f0       	breq	.+26     	; 0x2754 <vTaskResume+0x3a>
    273a:	0f b6       	in	r0, 0x3f	; 63
    273c:	f8 94       	cli
    273e:	0f 92       	push	r0
    2740:	d8 01       	movw	r26, r16
    2742:	1a 96       	adiw	r26, 0x0a	; 10
    2744:	8d 91       	ld	r24, X+
    2746:	9c 91       	ld	r25, X
    2748:	1b 97       	sbiw	r26, 0x0b	; 11
    274a:	8e 55       	subi	r24, 0x5E	; 94
    274c:	94 41       	sbci	r25, 0x14	; 20
    274e:	31 f0       	breq	.+12     	; 0x275c <vTaskResume+0x42>
    2750:	0f 90       	pop	r0
    2752:	0f be       	out	0x3f, r0	; 63
    2754:	22 96       	adiw	r28, 0x02	; 2
    2756:	e4 e0       	ldi	r30, 0x04	; 4
    2758:	0c 94 bc 27 	jmp	0x4f78	; 0x4f78 <__epilogue_restores__+0x1c>
    275c:	f8 01       	movw	r30, r16
    275e:	84 89       	ldd	r24, Z+20	; 0x14
    2760:	95 89       	ldd	r25, Z+21	; 0x15
    2762:	f4 e1       	ldi	r31, 0x14	; 20
    2764:	81 37       	cpi	r24, 0x71	; 113
    2766:	9f 07       	cpc	r25, r31
    2768:	99 f3       	breq	.-26     	; 0x2750 <vTaskResume+0x36>
    276a:	89 2b       	or	r24, r25
    276c:	89 f7       	brne	.-30     	; 0x2750 <vTaskResume+0x36>
    276e:	b8 01       	movw	r22, r16
    2770:	6e 5f       	subi	r22, 0xFE	; 254
    2772:	7f 4f       	sbci	r23, 0xFF	; 255
    2774:	cb 01       	movw	r24, r22
    2776:	69 83       	std	Y+1, r22	; 0x01
    2778:	7a 83       	std	Y+2, r23	; 0x02
    277a:	0e 94 38 27 	call	0x4e70	; 0x4e70 <uxListRemove>
    277e:	f8 01       	movw	r30, r16
    2780:	26 89       	ldd	r18, Z+22	; 0x16
    2782:	80 91 5a 14 	lds	r24, 0x145A
    2786:	69 81       	ldd	r22, Y+1	; 0x01
    2788:	7a 81       	ldd	r23, Y+2	; 0x02
    278a:	82 17       	cp	r24, r18
    278c:	10 f4       	brcc	.+4      	; 0x2792 <vTaskResume+0x78>
    278e:	20 93 5a 14 	sts	0x145A, r18
    2792:	30 e0       	ldi	r19, 0x00	; 0
    2794:	c9 01       	movw	r24, r18
    2796:	88 0f       	add	r24, r24
    2798:	99 1f       	adc	r25, r25
    279a:	88 0f       	add	r24, r24
    279c:	99 1f       	adc	r25, r25
    279e:	88 0f       	add	r24, r24
    27a0:	99 1f       	adc	r25, r25
    27a2:	82 0f       	add	r24, r18
    27a4:	93 1f       	adc	r25, r19
    27a6:	80 57       	subi	r24, 0x70	; 112
    27a8:	9b 4e       	sbci	r25, 0xEB	; 235
    27aa:	0e 94 e6 26 	call	0x4dcc	; 0x4dcc <vListInsertEnd>
    27ae:	e0 91 b4 14 	lds	r30, 0x14B4
    27b2:	f0 91 b5 14 	lds	r31, 0x14B5
    27b6:	d8 01       	movw	r26, r16
    27b8:	56 96       	adiw	r26, 0x16	; 22
    27ba:	9c 91       	ld	r25, X
    27bc:	86 89       	ldd	r24, Z+22	; 0x16
    27be:	98 17       	cp	r25, r24
    27c0:	38 f2       	brcs	.-114    	; 0x2750 <vTaskResume+0x36>
    27c2:	0e 94 f7 25 	call	0x4bee	; 0x4bee <vPortYield>
    27c6:	c4 cf       	rjmp	.-120    	; 0x2750 <vTaskResume+0x36>

000027c8 <xTaskResumeFromISR>:
    27c8:	ff 92       	push	r15
    27ca:	0f 93       	push	r16
    27cc:	1f 93       	push	r17
    27ce:	cf 93       	push	r28
    27d0:	df 93       	push	r29
    27d2:	ec 01       	movw	r28, r24
    27d4:	8a 85       	ldd	r24, Y+10	; 0x0a
    27d6:	9b 85       	ldd	r25, Y+11	; 0x0b
    27d8:	8e 55       	subi	r24, 0x5E	; 94
    27da:	94 41       	sbci	r25, 0x14	; 20
    27dc:	41 f0       	breq	.+16     	; 0x27ee <xTaskResumeFromISR+0x26>
    27de:	f1 2c       	mov	r15, r1
    27e0:	8f 2d       	mov	r24, r15
    27e2:	cd b7       	in	r28, 0x3d	; 61
    27e4:	de b7       	in	r29, 0x3e	; 62
    27e6:	e5 e0       	ldi	r30, 0x05	; 5
    27e8:	0c 94 bb 27 	jmp	0x4f76	; 0x4f76 <__epilogue_restores__+0x1a>
    27ec:	48 c0       	rjmp	.+144    	; 0x287e <vTaskStartScheduler>
    27ee:	8c 89       	ldd	r24, Y+20	; 0x14
    27f0:	9d 89       	ldd	r25, Y+21	; 0x15
    27f2:	24 e1       	ldi	r18, 0x14	; 20
    27f4:	81 37       	cpi	r24, 0x71	; 113
    27f6:	92 07       	cpc	r25, r18
    27f8:	91 f3       	breq	.-28     	; 0x27de <xTaskResumeFromISR+0x16>
    27fa:	89 2b       	or	r24, r25
    27fc:	81 f7       	brne	.-32     	; 0x27de <xTaskResumeFromISR+0x16>
    27fe:	80 91 54 14 	lds	r24, 0x1454
    2802:	81 11       	cpse	r24, r1
    2804:	2e c0       	rjmp	.+92     	; 0x2862 <xTaskResumeFromISR+0x9a>
    2806:	e0 91 b4 14 	lds	r30, 0x14B4
    280a:	f0 91 b5 14 	lds	r31, 0x14B5
    280e:	ff 24       	eor	r15, r15
    2810:	f3 94       	inc	r15
    2812:	9e 89       	ldd	r25, Y+22	; 0x16
    2814:	86 89       	ldd	r24, Z+22	; 0x16
    2816:	98 17       	cp	r25, r24
    2818:	08 f4       	brcc	.+2      	; 0x281c <xTaskResumeFromISR+0x54>
    281a:	f1 2c       	mov	r15, r1
    281c:	8e 01       	movw	r16, r28
    281e:	0e 5f       	subi	r16, 0xFE	; 254
    2820:	1f 4f       	sbci	r17, 0xFF	; 255
    2822:	c8 01       	movw	r24, r16
    2824:	0e 94 38 27 	call	0x4e70	; 0x4e70 <uxListRemove>
    2828:	4e 89       	ldd	r20, Y+22	; 0x16
    282a:	80 91 5a 14 	lds	r24, 0x145A
    282e:	84 17       	cp	r24, r20
    2830:	10 f4       	brcc	.+4      	; 0x2836 <xTaskResumeFromISR+0x6e>
    2832:	40 93 5a 14 	sts	0x145A, r20
    2836:	50 e0       	ldi	r21, 0x00	; 0
    2838:	ca 01       	movw	r24, r20
    283a:	88 0f       	add	r24, r24
    283c:	99 1f       	adc	r25, r25
    283e:	88 0f       	add	r24, r24
    2840:	99 1f       	adc	r25, r25
    2842:	88 0f       	add	r24, r24
    2844:	99 1f       	adc	r25, r25
    2846:	84 0f       	add	r24, r20
    2848:	95 1f       	adc	r25, r21
    284a:	b8 01       	movw	r22, r16
    284c:	80 57       	subi	r24, 0x70	; 112
    284e:	9b 4e       	sbci	r25, 0xEB	; 235
    2850:	0e 94 e6 26 	call	0x4dcc	; 0x4dcc <vListInsertEnd>
    2854:	8f 2d       	mov	r24, r15
    2856:	cd b7       	in	r28, 0x3d	; 61
    2858:	de b7       	in	r29, 0x3e	; 62
    285a:	e5 e0       	ldi	r30, 0x05	; 5
    285c:	0c 94 bb 27 	jmp	0x4f76	; 0x4f76 <__epilogue_restores__+0x1a>
    2860:	0e c0       	rjmp	.+28     	; 0x287e <vTaskStartScheduler>
    2862:	be 01       	movw	r22, r28
    2864:	64 5f       	subi	r22, 0xF4	; 244
    2866:	7f 4f       	sbci	r23, 0xFF	; 255
    2868:	81 e7       	ldi	r24, 0x71	; 113
    286a:	94 e1       	ldi	r25, 0x14	; 20
    286c:	0e 94 e6 26 	call	0x4dcc	; 0x4dcc <vListInsertEnd>
    2870:	f1 2c       	mov	r15, r1
    2872:	8f 2d       	mov	r24, r15
    2874:	cd b7       	in	r28, 0x3d	; 61
    2876:	de b7       	in	r29, 0x3e	; 62
    2878:	e5 e0       	ldi	r30, 0x05	; 5
    287a:	0c 94 bb 27 	jmp	0x4f76	; 0x4f76 <__epilogue_restores__+0x1a>

0000287e <vTaskStartScheduler>:
    287e:	ef 92       	push	r14
    2880:	ff 92       	push	r15
    2882:	0f 93       	push	r16
    2884:	1f 93       	push	r17
    2886:	cf 93       	push	r28
    2888:	df 93       	push	r29
    288a:	88 e2       	ldi	r24, 0x28	; 40
    288c:	90 e0       	ldi	r25, 0x00	; 0
    288e:	0e 94 a4 0b 	call	0x1748	; 0x1748 <pvPortMalloc>
    2892:	ec 01       	movw	r28, r24
    2894:	00 97       	sbiw	r24, 0x00	; 0
    2896:	09 f4       	brne	.+2      	; 0x289a <vTaskStartScheduler+0x1c>
    2898:	98 c0       	rjmp	.+304    	; 0x29ca <vTaskStartScheduler+0x14c>
    289a:	85 e5       	ldi	r24, 0x55	; 85
    289c:	90 e0       	ldi	r25, 0x00	; 0
    289e:	0e 94 a4 0b 	call	0x1748	; 0x1748 <pvPortMalloc>
    28a2:	98 8f       	std	Y+24, r25	; 0x18
    28a4:	8f 8b       	std	Y+23, r24	; 0x17
    28a6:	00 97       	sbiw	r24, 0x00	; 0
    28a8:	09 f4       	brne	.+2      	; 0x28ac <vTaskStartScheduler+0x2e>
    28aa:	cf c0       	rjmp	.+414    	; 0x2a4a <vTaskStartScheduler+0x1cc>
    28ac:	45 e5       	ldi	r20, 0x55	; 85
    28ae:	50 e0       	ldi	r21, 0x00	; 0
    28b0:	65 ea       	ldi	r22, 0xA5	; 165
    28b2:	70 e0       	ldi	r23, 0x00	; 0
    28b4:	0e 94 d2 27 	call	0x4fa4	; 0x4fa4 <memset>
    28b8:	ef 88       	ldd	r14, Y+23	; 0x17
    28ba:	f8 8c       	ldd	r15, Y+24	; 0x18
    28bc:	84 e5       	ldi	r24, 0x54	; 84
    28be:	e8 0e       	add	r14, r24
    28c0:	f1 1c       	adc	r15, r1
    28c2:	ae 01       	movw	r20, r28
    28c4:	47 5e       	subi	r20, 0xE7	; 231
    28c6:	5f 4f       	sbci	r21, 0xFF	; 255
    28c8:	eb e0       	ldi	r30, 0x0B	; 11
    28ca:	f2 e0       	ldi	r31, 0x02	; 2
    28cc:	9f 01       	movw	r18, r30
    28ce:	81 91       	ld	r24, Z+
    28d0:	da 01       	movw	r26, r20
    28d2:	8d 93       	st	X+, r24
    28d4:	ad 01       	movw	r20, r26
    28d6:	d9 01       	movw	r26, r18
    28d8:	8c 91       	ld	r24, X
    28da:	88 23       	and	r24, r24
    28dc:	21 f0       	breq	.+8      	; 0x28e6 <vTaskStartScheduler+0x68>
    28de:	b2 e0       	ldi	r27, 0x02	; 2
    28e0:	e3 31       	cpi	r30, 0x13	; 19
    28e2:	fb 07       	cpc	r31, r27
    28e4:	99 f7       	brne	.-26     	; 0x28cc <vTaskStartScheduler+0x4e>
    28e6:	18 a2       	std	Y+32, r1	; 0x20
    28e8:	1e 8a       	std	Y+22, r1	; 0x16
    28ea:	1b a2       	std	Y+35, r1	; 0x23
    28ec:	8e 01       	movw	r16, r28
    28ee:	0e 5f       	subi	r16, 0xFE	; 254
    28f0:	1f 4f       	sbci	r17, 0xFF	; 255
    28f2:	c8 01       	movw	r24, r16
    28f4:	0e 94 e2 26 	call	0x4dc4	; 0x4dc4 <vListInitialiseItem>
    28f8:	ce 01       	movw	r24, r28
    28fa:	0c 96       	adiw	r24, 0x0c	; 12
    28fc:	0e 94 e2 26 	call	0x4dc4	; 0x4dc4 <vListInitialiseItem>
    2900:	d9 87       	std	Y+9, r29	; 0x09
    2902:	c8 87       	std	Y+8, r28	; 0x08
    2904:	84 e0       	ldi	r24, 0x04	; 4
    2906:	90 e0       	ldi	r25, 0x00	; 0
    2908:	9d 87       	std	Y+13, r25	; 0x0d
    290a:	8c 87       	std	Y+12, r24	; 0x0c
    290c:	db 8b       	std	Y+19, r29	; 0x13
    290e:	ca 8b       	std	Y+18, r28	; 0x12
    2910:	1c a2       	std	Y+36, r1	; 0x24
    2912:	1d a2       	std	Y+37, r1	; 0x25
    2914:	1e a2       	std	Y+38, r1	; 0x26
    2916:	1f a2       	std	Y+39, r1	; 0x27
    2918:	40 e0       	ldi	r20, 0x00	; 0
    291a:	50 e0       	ldi	r21, 0x00	; 0
    291c:	63 eb       	ldi	r22, 0xB3	; 179
    291e:	70 e0       	ldi	r23, 0x00	; 0
    2920:	c7 01       	movw	r24, r14
    2922:	0e 94 3b 25 	call	0x4a76	; 0x4a76 <pxPortInitialiseStack>
    2926:	99 83       	std	Y+1, r25	; 0x01
    2928:	88 83       	st	Y, r24
    292a:	0f b6       	in	r0, 0x3f	; 63
    292c:	f8 94       	cli
    292e:	0f 92       	push	r0
    2930:	80 91 5d 14 	lds	r24, 0x145D
    2934:	8f 5f       	subi	r24, 0xFF	; 255
    2936:	80 93 5d 14 	sts	0x145D, r24
    293a:	80 91 b4 14 	lds	r24, 0x14B4
    293e:	90 91 b5 14 	lds	r25, 0x14B5
    2942:	89 2b       	or	r24, r25
    2944:	09 f4       	brne	.+2      	; 0x2948 <vTaskStartScheduler+0xca>
    2946:	47 c0       	rjmp	.+142    	; 0x29d6 <vTaskStartScheduler+0x158>
    2948:	80 91 59 14 	lds	r24, 0x1459
    294c:	81 11       	cpse	r24, r1
    294e:	0b c0       	rjmp	.+22     	; 0x2966 <vTaskStartScheduler+0xe8>
    2950:	e0 91 b4 14 	lds	r30, 0x14B4
    2954:	f0 91 b5 14 	lds	r31, 0x14B5
    2958:	86 89       	ldd	r24, Z+22	; 0x16
    295a:	81 11       	cpse	r24, r1
    295c:	04 c0       	rjmp	.+8      	; 0x2966 <vTaskStartScheduler+0xe8>
    295e:	d0 93 b5 14 	sts	0x14B5, r29
    2962:	c0 93 b4 14 	sts	0x14B4, r28
    2966:	80 91 55 14 	lds	r24, 0x1455
    296a:	8f 5f       	subi	r24, 0xFF	; 255
    296c:	80 93 55 14 	sts	0x1455, r24
    2970:	89 a3       	std	Y+33, r24	; 0x21
    2972:	2e 89       	ldd	r18, Y+22	; 0x16
    2974:	80 91 5a 14 	lds	r24, 0x145A
    2978:	82 17       	cp	r24, r18
    297a:	10 f4       	brcc	.+4      	; 0x2980 <vTaskStartScheduler+0x102>
    297c:	20 93 5a 14 	sts	0x145A, r18
    2980:	30 e0       	ldi	r19, 0x00	; 0
    2982:	c9 01       	movw	r24, r18
    2984:	88 0f       	add	r24, r24
    2986:	99 1f       	adc	r25, r25
    2988:	88 0f       	add	r24, r24
    298a:	99 1f       	adc	r25, r25
    298c:	88 0f       	add	r24, r24
    298e:	99 1f       	adc	r25, r25
    2990:	82 0f       	add	r24, r18
    2992:	93 1f       	adc	r25, r19
    2994:	b8 01       	movw	r22, r16
    2996:	80 57       	subi	r24, 0x70	; 112
    2998:	9b 4e       	sbci	r25, 0xEB	; 235
    299a:	0e 94 e6 26 	call	0x4dcc	; 0x4dcc <vListInsertEnd>
    299e:	0f 90       	pop	r0
    29a0:	0f be       	out	0x3f, r0	; 63
    29a2:	80 91 59 14 	lds	r24, 0x1459
    29a6:	88 23       	and	r24, r24
    29a8:	21 f0       	breq	.+8      	; 0x29b2 <vTaskStartScheduler+0x134>
    29aa:	80 91 b4 14 	lds	r24, 0x14B4
    29ae:	90 91 b5 14 	lds	r25, 0x14B5
    29b2:	f8 94       	cli
    29b4:	81 e0       	ldi	r24, 0x01	; 1
    29b6:	80 93 59 14 	sts	0x1459, r24
    29ba:	10 92 5c 14 	sts	0x145C, r1
    29be:	10 92 5b 14 	sts	0x145B, r1
    29c2:	0e 94 64 27 	call	0x4ec8	; 0x4ec8 <xconfigTimerForRunTimeStats>
    29c6:	0e 94 ad 25 	call	0x4b5a	; 0x4b5a <xPortStartScheduler>
    29ca:	cd b7       	in	r28, 0x3d	; 61
    29cc:	de b7       	in	r29, 0x3e	; 62
    29ce:	e6 e0       	ldi	r30, 0x06	; 6
    29d0:	0c 94 ba 27 	jmp	0x4f74	; 0x4f74 <__epilogue_restores__+0x18>
    29d4:	42 c0       	rjmp	.+132    	; 0x2a5a <vTaskEndScheduler>
    29d6:	d0 93 b5 14 	sts	0x14B5, r29
    29da:	c0 93 b4 14 	sts	0x14B4, r28
    29de:	80 91 5d 14 	lds	r24, 0x145D
    29e2:	81 30       	cpi	r24, 0x01	; 1
    29e4:	09 f0       	breq	.+2      	; 0x29e8 <vTaskStartScheduler+0x16a>
    29e6:	bf cf       	rjmp	.-130    	; 0x2966 <vTaskStartScheduler+0xe8>
    29e8:	80 e9       	ldi	r24, 0x90	; 144
    29ea:	94 e1       	ldi	r25, 0x14	; 20
    29ec:	0e 94 d4 26 	call	0x4da8	; 0x4da8 <vListInitialise>
    29f0:	89 e9       	ldi	r24, 0x99	; 153
    29f2:	94 e1       	ldi	r25, 0x14	; 20
    29f4:	0e 94 d4 26 	call	0x4da8	; 0x4da8 <vListInitialise>
    29f8:	82 ea       	ldi	r24, 0xA2	; 162
    29fa:	94 e1       	ldi	r25, 0x14	; 20
    29fc:	0e 94 d4 26 	call	0x4da8	; 0x4da8 <vListInitialise>
    2a00:	8b ea       	ldi	r24, 0xAB	; 171
    2a02:	94 e1       	ldi	r25, 0x14	; 20
    2a04:	0e 94 d4 26 	call	0x4da8	; 0x4da8 <vListInitialise>
    2a08:	87 e8       	ldi	r24, 0x87	; 135
    2a0a:	94 e1       	ldi	r25, 0x14	; 20
    2a0c:	0e 94 d4 26 	call	0x4da8	; 0x4da8 <vListInitialise>
    2a10:	8e e7       	ldi	r24, 0x7E	; 126
    2a12:	94 e1       	ldi	r25, 0x14	; 20
    2a14:	0e 94 d4 26 	call	0x4da8	; 0x4da8 <vListInitialise>
    2a18:	81 e7       	ldi	r24, 0x71	; 113
    2a1a:	94 e1       	ldi	r25, 0x14	; 20
    2a1c:	0e 94 d4 26 	call	0x4da8	; 0x4da8 <vListInitialise>
    2a20:	88 e6       	ldi	r24, 0x68	; 104
    2a22:	94 e1       	ldi	r25, 0x14	; 20
    2a24:	0e 94 d4 26 	call	0x4da8	; 0x4da8 <vListInitialise>
    2a28:	8e e5       	ldi	r24, 0x5E	; 94
    2a2a:	94 e1       	ldi	r25, 0x14	; 20
    2a2c:	0e 94 d4 26 	call	0x4da8	; 0x4da8 <vListInitialise>
    2a30:	87 e8       	ldi	r24, 0x87	; 135
    2a32:	94 e1       	ldi	r25, 0x14	; 20
    2a34:	90 93 7d 14 	sts	0x147D, r25
    2a38:	80 93 7c 14 	sts	0x147C, r24
    2a3c:	8e e7       	ldi	r24, 0x7E	; 126
    2a3e:	94 e1       	ldi	r25, 0x14	; 20
    2a40:	90 93 7b 14 	sts	0x147B, r25
    2a44:	80 93 7a 14 	sts	0x147A, r24
    2a48:	8e cf       	rjmp	.-228    	; 0x2966 <vTaskStartScheduler+0xe8>
    2a4a:	ce 01       	movw	r24, r28
    2a4c:	0e 94 aa 0c 	call	0x1954	; 0x1954 <vPortFree>
    2a50:	cd b7       	in	r28, 0x3d	; 61
    2a52:	de b7       	in	r29, 0x3e	; 62
    2a54:	e6 e0       	ldi	r30, 0x06	; 6
    2a56:	0c 94 ba 27 	jmp	0x4f74	; 0x4f74 <__epilogue_restores__+0x18>

00002a5a <vTaskEndScheduler>:
    2a5a:	f8 94       	cli
    2a5c:	10 92 59 14 	sts	0x1459, r1
    2a60:	0e 94 f6 25 	call	0x4bec	; 0x4bec <vPortEndScheduler>
    2a64:	08 95       	ret

00002a66 <vTaskSuspendAll>:
    2a66:	80 91 54 14 	lds	r24, 0x1454
    2a6a:	8f 5f       	subi	r24, 0xFF	; 255
    2a6c:	80 93 54 14 	sts	0x1454, r24
    2a70:	08 95       	ret

00002a72 <xTaskResumeAll>:
    2a72:	a0 e0       	ldi	r26, 0x00	; 0
    2a74:	b0 e0       	ldi	r27, 0x00	; 0
    2a76:	ef e3       	ldi	r30, 0x3F	; 63
    2a78:	f5 e1       	ldi	r31, 0x15	; 21
    2a7a:	0c 94 9a 27 	jmp	0x4f34	; 0x4f34 <__prologue_saves__+0x10>
    2a7e:	0f b6       	in	r0, 0x3f	; 63
    2a80:	f8 94       	cli
    2a82:	0f 92       	push	r0
    2a84:	80 91 54 14 	lds	r24, 0x1454
    2a88:	81 50       	subi	r24, 0x01	; 1
    2a8a:	80 93 54 14 	sts	0x1454, r24
    2a8e:	80 91 54 14 	lds	r24, 0x1454
    2a92:	81 11       	cpse	r24, r1
    2a94:	b3 c0       	rjmp	.+358    	; 0x2bfc <xTaskResumeAll+0x18a>
    2a96:	80 91 5d 14 	lds	r24, 0x145D
    2a9a:	88 23       	and	r24, r24
    2a9c:	09 f4       	brne	.+2      	; 0x2aa0 <xTaskResumeAll+0x2e>
    2a9e:	ae c0       	rjmp	.+348    	; 0x2bfc <xTaskResumeAll+0x18a>
    2aa0:	ff 24       	eor	r15, r15
    2aa2:	f3 94       	inc	r15
    2aa4:	2f c0       	rjmp	.+94     	; 0x2b04 <xTaskResumeAll+0x92>
    2aa6:	e0 91 76 14 	lds	r30, 0x1476
    2aaa:	f0 91 77 14 	lds	r31, 0x1477
    2aae:	c6 81       	ldd	r28, Z+6	; 0x06
    2ab0:	d7 81       	ldd	r29, Z+7	; 0x07
    2ab2:	ce 01       	movw	r24, r28
    2ab4:	0c 96       	adiw	r24, 0x0c	; 12
    2ab6:	0e 94 38 27 	call	0x4e70	; 0x4e70 <uxListRemove>
    2aba:	8e 01       	movw	r16, r28
    2abc:	0e 5f       	subi	r16, 0xFE	; 254
    2abe:	1f 4f       	sbci	r17, 0xFF	; 255
    2ac0:	c8 01       	movw	r24, r16
    2ac2:	0e 94 38 27 	call	0x4e70	; 0x4e70 <uxListRemove>
    2ac6:	2e 89       	ldd	r18, Y+22	; 0x16
    2ac8:	80 91 5a 14 	lds	r24, 0x145A
    2acc:	82 17       	cp	r24, r18
    2ace:	10 f4       	brcc	.+4      	; 0x2ad4 <xTaskResumeAll+0x62>
    2ad0:	20 93 5a 14 	sts	0x145A, r18
    2ad4:	30 e0       	ldi	r19, 0x00	; 0
    2ad6:	c9 01       	movw	r24, r18
    2ad8:	88 0f       	add	r24, r24
    2ada:	99 1f       	adc	r25, r25
    2adc:	88 0f       	add	r24, r24
    2ade:	99 1f       	adc	r25, r25
    2ae0:	88 0f       	add	r24, r24
    2ae2:	99 1f       	adc	r25, r25
    2ae4:	82 0f       	add	r24, r18
    2ae6:	93 1f       	adc	r25, r19
    2ae8:	b8 01       	movw	r22, r16
    2aea:	80 57       	subi	r24, 0x70	; 112
    2aec:	9b 4e       	sbci	r25, 0xEB	; 235
    2aee:	0e 94 e6 26 	call	0x4dcc	; 0x4dcc <vListInsertEnd>
    2af2:	e0 91 b4 14 	lds	r30, 0x14B4
    2af6:	f0 91 b5 14 	lds	r31, 0x14B5
    2afa:	9e 89       	ldd	r25, Y+22	; 0x16
    2afc:	86 89       	ldd	r24, Z+22	; 0x16
    2afe:	98 17       	cp	r25, r24
    2b00:	08 f0       	brcs	.+2      	; 0x2b04 <xTaskResumeAll+0x92>
    2b02:	84 c0       	rjmp	.+264    	; 0x2c0c <xTaskResumeAll+0x19a>
    2b04:	80 91 71 14 	lds	r24, 0x1471
    2b08:	81 11       	cpse	r24, r1
    2b0a:	cd cf       	rjmp	.-102    	; 0x2aa6 <xTaskResumeAll+0x34>
    2b0c:	80 91 58 14 	lds	r24, 0x1458
    2b10:	88 23       	and	r24, r24
    2b12:	09 f4       	brne	.+2      	; 0x2b16 <xTaskResumeAll+0xa4>
    2b14:	6e c0       	rjmp	.+220    	; 0x2bf2 <xTaskResumeAll+0x180>
    2b16:	80 91 58 14 	lds	r24, 0x1458
    2b1a:	88 23       	and	r24, r24
    2b1c:	09 f4       	brne	.+2      	; 0x2b20 <xTaskResumeAll+0xae>
    2b1e:	69 c0       	rjmp	.+210    	; 0x2bf2 <xTaskResumeAll+0x180>
    2b20:	aa 24       	eor	r10, r10
    2b22:	a3 94       	inc	r10
    2b24:	cc 24       	eor	r12, r12
    2b26:	ca 94       	dec	r12
    2b28:	dc 2c       	mov	r13, r12
    2b2a:	80 91 54 14 	lds	r24, 0x1454
    2b2e:	81 11       	cpse	r24, r1
    2b30:	c6 c0       	rjmp	.+396    	; 0x2cbe <xTaskResumeAll+0x24c>
    2b32:	80 91 5b 14 	lds	r24, 0x145B
    2b36:	90 91 5c 14 	lds	r25, 0x145C
    2b3a:	01 96       	adiw	r24, 0x01	; 1
    2b3c:	90 93 5c 14 	sts	0x145C, r25
    2b40:	80 93 5b 14 	sts	0x145B, r24
    2b44:	e0 90 5b 14 	lds	r14, 0x145B
    2b48:	f0 90 5c 14 	lds	r15, 0x145C
    2b4c:	e1 14       	cp	r14, r1
    2b4e:	f1 04       	cpc	r15, r1
    2b50:	01 f5       	brne	.+64     	; 0x2b92 <xTaskResumeAll+0x120>
    2b52:	80 91 7c 14 	lds	r24, 0x147C
    2b56:	90 91 7d 14 	lds	r25, 0x147D
    2b5a:	20 91 7a 14 	lds	r18, 0x147A
    2b5e:	30 91 7b 14 	lds	r19, 0x147B
    2b62:	30 93 7d 14 	sts	0x147D, r19
    2b66:	20 93 7c 14 	sts	0x147C, r18
    2b6a:	90 93 7b 14 	sts	0x147B, r25
    2b6e:	80 93 7a 14 	sts	0x147A, r24
    2b72:	80 91 56 14 	lds	r24, 0x1456
    2b76:	8f 5f       	subi	r24, 0xFF	; 255
    2b78:	80 93 56 14 	sts	0x1456, r24
    2b7c:	e0 91 7c 14 	lds	r30, 0x147C
    2b80:	f0 91 7d 14 	lds	r31, 0x147D
    2b84:	80 81       	ld	r24, Z
    2b86:	81 11       	cpse	r24, r1
    2b88:	a7 c0       	rjmp	.+334    	; 0x2cd8 <xTaskResumeAll+0x266>
    2b8a:	d0 92 05 02 	sts	0x0205, r13
    2b8e:	c0 92 04 02 	sts	0x0204, r12
    2b92:	80 91 04 02 	lds	r24, 0x0204
    2b96:	90 91 05 02 	lds	r25, 0x0205
    2b9a:	b1 2c       	mov	r11, r1
    2b9c:	e8 16       	cp	r14, r24
    2b9e:	f9 06       	cpc	r15, r25
    2ba0:	c0 f5       	brcc	.+112    	; 0x2c12 <xTaskResumeAll+0x1a0>
    2ba2:	e0 91 b4 14 	lds	r30, 0x14B4
    2ba6:	f0 91 b5 14 	lds	r31, 0x14B5
    2baa:	86 89       	ldd	r24, Z+22	; 0x16
    2bac:	90 e0       	ldi	r25, 0x00	; 0
    2bae:	fc 01       	movw	r30, r24
    2bb0:	ee 0f       	add	r30, r30
    2bb2:	ff 1f       	adc	r31, r31
    2bb4:	ee 0f       	add	r30, r30
    2bb6:	ff 1f       	adc	r31, r31
    2bb8:	ee 0f       	add	r30, r30
    2bba:	ff 1f       	adc	r31, r31
    2bbc:	e8 0f       	add	r30, r24
    2bbe:	f9 1f       	adc	r31, r25
    2bc0:	e0 57       	subi	r30, 0x70	; 112
    2bc2:	fb 4e       	sbci	r31, 0xEB	; 235
    2bc4:	80 81       	ld	r24, Z
    2bc6:	82 30       	cpi	r24, 0x02	; 2
    2bc8:	28 f0       	brcs	.+10     	; 0x2bd4 <xTaskResumeAll+0x162>
    2bca:	80 91 57 14 	lds	r24, 0x1457
    2bce:	a0 92 57 14 	sts	0x1457, r10
    2bd2:	06 c0       	rjmp	.+12     	; 0x2be0 <xTaskResumeAll+0x16e>
    2bd4:	80 91 57 14 	lds	r24, 0x1457
    2bd8:	81 11       	cpse	r24, r1
    2bda:	f9 cf       	rjmp	.-14     	; 0x2bce <xTaskResumeAll+0x15c>
    2bdc:	b1 10       	cpse	r11, r1
    2bde:	f7 cf       	rjmp	.-18     	; 0x2bce <xTaskResumeAll+0x15c>
    2be0:	80 91 58 14 	lds	r24, 0x1458
    2be4:	81 50       	subi	r24, 0x01	; 1
    2be6:	80 93 58 14 	sts	0x1458, r24
    2bea:	80 91 58 14 	lds	r24, 0x1458
    2bee:	81 11       	cpse	r24, r1
    2bf0:	9c cf       	rjmp	.-200    	; 0x2b2a <xTaskResumeAll+0xb8>
    2bf2:	80 91 57 14 	lds	r24, 0x1457
    2bf6:	81 30       	cpi	r24, 0x01	; 1
    2bf8:	09 f4       	brne	.+2      	; 0x2bfc <xTaskResumeAll+0x18a>
    2bfa:	5d c0       	rjmp	.+186    	; 0x2cb6 <xTaskResumeAll+0x244>
    2bfc:	80 e0       	ldi	r24, 0x00	; 0
    2bfe:	0f 90       	pop	r0
    2c00:	0f be       	out	0x3f, r0	; 63
    2c02:	cd b7       	in	r28, 0x3d	; 61
    2c04:	de b7       	in	r29, 0x3e	; 62
    2c06:	ea e0       	ldi	r30, 0x0A	; 10
    2c08:	0c 94 b6 27 	jmp	0x4f6c	; 0x4f6c <__epilogue_restores__+0x10>
    2c0c:	f0 92 57 14 	sts	0x1457, r15
    2c10:	79 cf       	rjmp	.-270    	; 0x2b04 <xTaskResumeAll+0x92>
    2c12:	e0 91 7c 14 	lds	r30, 0x147C
    2c16:	f0 91 7d 14 	lds	r31, 0x147D
    2c1a:	80 81       	ld	r24, Z
    2c1c:	88 23       	and	r24, r24
    2c1e:	09 f4       	brne	.+2      	; 0x2c22 <xTaskResumeAll+0x1b0>
    2c20:	45 c0       	rjmp	.+138    	; 0x2cac <xTaskResumeAll+0x23a>
    2c22:	e0 91 7c 14 	lds	r30, 0x147C
    2c26:	f0 91 7d 14 	lds	r31, 0x147D
    2c2a:	05 80       	ldd	r0, Z+5	; 0x05
    2c2c:	f6 81       	ldd	r31, Z+6	; 0x06
    2c2e:	e0 2d       	mov	r30, r0
    2c30:	c6 81       	ldd	r28, Z+6	; 0x06
    2c32:	d7 81       	ldd	r29, Z+7	; 0x07
    2c34:	8a 81       	ldd	r24, Y+2	; 0x02
    2c36:	9b 81       	ldd	r25, Y+3	; 0x03
    2c38:	e8 16       	cp	r14, r24
    2c3a:	f9 06       	cpc	r15, r25
    2c3c:	08 f4       	brcc	.+2      	; 0x2c40 <xTaskResumeAll+0x1ce>
    2c3e:	5d c0       	rjmp	.+186    	; 0x2cfa <xTaskResumeAll+0x288>
    2c40:	8e 01       	movw	r16, r28
    2c42:	0e 5f       	subi	r16, 0xFE	; 254
    2c44:	1f 4f       	sbci	r17, 0xFF	; 255
    2c46:	c8 01       	movw	r24, r16
    2c48:	0e 94 38 27 	call	0x4e70	; 0x4e70 <uxListRemove>
    2c4c:	8c 89       	ldd	r24, Y+20	; 0x14
    2c4e:	9d 89       	ldd	r25, Y+21	; 0x15
    2c50:	89 2b       	or	r24, r25
    2c52:	21 f0       	breq	.+8      	; 0x2c5c <xTaskResumeAll+0x1ea>
    2c54:	ce 01       	movw	r24, r28
    2c56:	0c 96       	adiw	r24, 0x0c	; 12
    2c58:	0e 94 38 27 	call	0x4e70	; 0x4e70 <uxListRemove>
    2c5c:	2e 89       	ldd	r18, Y+22	; 0x16
    2c5e:	80 91 5a 14 	lds	r24, 0x145A
    2c62:	82 17       	cp	r24, r18
    2c64:	10 f4       	brcc	.+4      	; 0x2c6a <xTaskResumeAll+0x1f8>
    2c66:	20 93 5a 14 	sts	0x145A, r18
    2c6a:	30 e0       	ldi	r19, 0x00	; 0
    2c6c:	c9 01       	movw	r24, r18
    2c6e:	88 0f       	add	r24, r24
    2c70:	99 1f       	adc	r25, r25
    2c72:	88 0f       	add	r24, r24
    2c74:	99 1f       	adc	r25, r25
    2c76:	88 0f       	add	r24, r24
    2c78:	99 1f       	adc	r25, r25
    2c7a:	82 0f       	add	r24, r18
    2c7c:	93 1f       	adc	r25, r19
    2c7e:	b8 01       	movw	r22, r16
    2c80:	80 57       	subi	r24, 0x70	; 112
    2c82:	9b 4e       	sbci	r25, 0xEB	; 235
    2c84:	0e 94 e6 26 	call	0x4dcc	; 0x4dcc <vListInsertEnd>
    2c88:	e0 91 b4 14 	lds	r30, 0x14B4
    2c8c:	f0 91 b5 14 	lds	r31, 0x14B5
    2c90:	9e 89       	ldd	r25, Y+22	; 0x16
    2c92:	86 89       	ldd	r24, Z+22	; 0x16
    2c94:	98 17       	cp	r25, r24
    2c96:	08 f4       	brcc	.+2      	; 0x2c9a <xTaskResumeAll+0x228>
    2c98:	bc cf       	rjmp	.-136    	; 0x2c12 <xTaskResumeAll+0x1a0>
    2c9a:	bb 24       	eor	r11, r11
    2c9c:	b3 94       	inc	r11
    2c9e:	e0 91 7c 14 	lds	r30, 0x147C
    2ca2:	f0 91 7d 14 	lds	r31, 0x147D
    2ca6:	80 81       	ld	r24, Z
    2ca8:	81 11       	cpse	r24, r1
    2caa:	bb cf       	rjmp	.-138    	; 0x2c22 <xTaskResumeAll+0x1b0>
    2cac:	d0 92 05 02 	sts	0x0205, r13
    2cb0:	c0 92 04 02 	sts	0x0204, r12
    2cb4:	76 cf       	rjmp	.-276    	; 0x2ba2 <xTaskResumeAll+0x130>
    2cb6:	0e 94 f7 25 	call	0x4bee	; 0x4bee <vPortYield>
    2cba:	81 e0       	ldi	r24, 0x01	; 1
    2cbc:	a0 cf       	rjmp	.-192    	; 0x2bfe <xTaskResumeAll+0x18c>
    2cbe:	80 91 58 14 	lds	r24, 0x1458
    2cc2:	8f 5f       	subi	r24, 0xFF	; 255
    2cc4:	80 93 58 14 	sts	0x1458, r24
    2cc8:	80 91 57 14 	lds	r24, 0x1457
    2ccc:	88 23       	and	r24, r24
    2cce:	09 f4       	brne	.+2      	; 0x2cd2 <xTaskResumeAll+0x260>
    2cd0:	87 cf       	rjmp	.-242    	; 0x2be0 <xTaskResumeAll+0x16e>
    2cd2:	a0 92 57 14 	sts	0x1457, r10
    2cd6:	84 cf       	rjmp	.-248    	; 0x2be0 <xTaskResumeAll+0x16e>
    2cd8:	e0 91 7c 14 	lds	r30, 0x147C
    2cdc:	f0 91 7d 14 	lds	r31, 0x147D
    2ce0:	05 80       	ldd	r0, Z+5	; 0x05
    2ce2:	f6 81       	ldd	r31, Z+6	; 0x06
    2ce4:	e0 2d       	mov	r30, r0
    2ce6:	06 80       	ldd	r0, Z+6	; 0x06
    2ce8:	f7 81       	ldd	r31, Z+7	; 0x07
    2cea:	e0 2d       	mov	r30, r0
    2cec:	82 81       	ldd	r24, Z+2	; 0x02
    2cee:	93 81       	ldd	r25, Z+3	; 0x03
    2cf0:	90 93 05 02 	sts	0x0205, r25
    2cf4:	80 93 04 02 	sts	0x0204, r24
    2cf8:	4c cf       	rjmp	.-360    	; 0x2b92 <xTaskResumeAll+0x120>
    2cfa:	90 93 05 02 	sts	0x0205, r25
    2cfe:	80 93 04 02 	sts	0x0204, r24
    2d02:	4f cf       	rjmp	.-354    	; 0x2ba2 <xTaskResumeAll+0x130>

00002d04 <xTaskGetTickCount>:
    2d04:	0f b6       	in	r0, 0x3f	; 63
    2d06:	f8 94       	cli
    2d08:	0f 92       	push	r0
    2d0a:	80 91 5b 14 	lds	r24, 0x145B
    2d0e:	90 91 5c 14 	lds	r25, 0x145C
    2d12:	0f 90       	pop	r0
    2d14:	0f be       	out	0x3f, r0	; 63
    2d16:	08 95       	ret

00002d18 <xTaskGetTickCountFromISR>:
    2d18:	80 91 5b 14 	lds	r24, 0x145B
    2d1c:	90 91 5c 14 	lds	r25, 0x145C
    2d20:	08 95       	ret

00002d22 <uxTaskGetNumberOfTasks>:
    2d22:	80 91 5d 14 	lds	r24, 0x145D
    2d26:	08 95       	ret

00002d28 <uxTaskGetSystemState>:
    2d28:	ef 92       	push	r14
    2d2a:	ff 92       	push	r15
    2d2c:	0f 93       	push	r16
    2d2e:	1f 93       	push	r17
    2d30:	cf 93       	push	r28
    2d32:	df 93       	push	r29
    2d34:	8c 01       	movw	r16, r24
    2d36:	ea 01       	movw	r28, r20
    2d38:	80 91 54 14 	lds	r24, 0x1454
    2d3c:	8f 5f       	subi	r24, 0xFF	; 255
    2d3e:	80 93 54 14 	sts	0x1454, r24
    2d42:	80 91 5d 14 	lds	r24, 0x145D
    2d46:	68 17       	cp	r22, r24
    2d48:	08 f4       	brcc	.+2      	; 0x2d4c <uxTaskGetSystemState+0x24>
    2d4a:	57 c0       	rjmp	.+174    	; 0x2dfa <uxTaskGetSystemState+0xd2>
    2d4c:	64 e0       	ldi	r22, 0x04	; 4
    2d4e:	f6 2e       	mov	r15, r22
    2d50:	e1 2c       	mov	r14, r1
    2d52:	fa 94       	dec	r15
    2d54:	2f 2d       	mov	r18, r15
    2d56:	30 e0       	ldi	r19, 0x00	; 0
    2d58:	f9 01       	movw	r30, r18
    2d5a:	ee 0f       	add	r30, r30
    2d5c:	ff 1f       	adc	r31, r31
    2d5e:	ee 0f       	add	r30, r30
    2d60:	ff 1f       	adc	r31, r31
    2d62:	ee 0f       	add	r30, r30
    2d64:	ff 1f       	adc	r31, r31
    2d66:	e2 0f       	add	r30, r18
    2d68:	f3 1f       	adc	r31, r19
    2d6a:	e0 57       	subi	r30, 0x70	; 112
    2d6c:	fb 4e       	sbci	r31, 0xEB	; 235
    2d6e:	80 81       	ld	r24, Z
    2d70:	81 11       	cpse	r24, r1
    2d72:	37 c0       	rjmp	.+110    	; 0x2de2 <uxTaskGetSystemState+0xba>
    2d74:	80 e0       	ldi	r24, 0x00	; 0
    2d76:	e8 0e       	add	r14, r24
    2d78:	f1 10       	cpse	r15, r1
    2d7a:	eb cf       	rjmp	.-42     	; 0x2d52 <uxTaskGetSystemState+0x2a>
    2d7c:	e0 91 7c 14 	lds	r30, 0x147C
    2d80:	f0 91 7d 14 	lds	r31, 0x147D
    2d84:	80 81       	ld	r24, Z
    2d86:	81 11       	cpse	r24, r1
    2d88:	42 c0       	rjmp	.+132    	; 0x2e0e <uxTaskGetSystemState+0xe6>
    2d8a:	80 e0       	ldi	r24, 0x00	; 0
    2d8c:	e8 0e       	add	r14, r24
    2d8e:	e0 91 7a 14 	lds	r30, 0x147A
    2d92:	f0 91 7b 14 	lds	r31, 0x147B
    2d96:	80 81       	ld	r24, Z
    2d98:	81 11       	cpse	r24, r1
    2d9a:	4d c0       	rjmp	.+154    	; 0x2e36 <uxTaskGetSystemState+0x10e>
    2d9c:	80 e0       	ldi	r24, 0x00	; 0
    2d9e:	e8 0e       	add	r14, r24
    2da0:	80 91 68 14 	lds	r24, 0x1468
    2da4:	81 11       	cpse	r24, r1
    2da6:	58 c0       	rjmp	.+176    	; 0x2e58 <uxTaskGetSystemState+0x130>
    2da8:	80 e0       	ldi	r24, 0x00	; 0
    2daa:	e8 0e       	add	r14, r24
    2dac:	80 91 5e 14 	lds	r24, 0x145E
    2db0:	81 11       	cpse	r24, r1
    2db2:	64 c0       	rjmp	.+200    	; 0x2e7c <uxTaskGetSystemState+0x154>
    2db4:	80 e0       	ldi	r24, 0x00	; 0
    2db6:	e8 0e       	add	r14, r24
    2db8:	20 97       	sbiw	r28, 0x00	; 0
    2dba:	51 f0       	breq	.+20     	; 0x2dd0 <uxTaskGetSystemState+0xa8>
    2dbc:	00 91 84 00 	lds	r16, 0x0084
    2dc0:	10 91 85 00 	lds	r17, 0x0085
    2dc4:	20 e0       	ldi	r18, 0x00	; 0
    2dc6:	30 e0       	ldi	r19, 0x00	; 0
    2dc8:	08 83       	st	Y, r16
    2dca:	19 83       	std	Y+1, r17	; 0x01
    2dcc:	2a 83       	std	Y+2, r18	; 0x02
    2dce:	3b 83       	std	Y+3, r19	; 0x03
    2dd0:	0e 94 39 15 	call	0x2a72	; 0x2a72 <xTaskResumeAll>
    2dd4:	8e 2d       	mov	r24, r14
    2dd6:	cd b7       	in	r28, 0x3d	; 61
    2dd8:	de b7       	in	r29, 0x3e	; 62
    2dda:	e6 e0       	ldi	r30, 0x06	; 6
    2ddc:	0c 94 ba 27 	jmp	0x4f74	; 0x4f74 <__epilogue_restores__+0x18>
    2de0:	5a c0       	rjmp	.+180    	; 0x2e96 <xTaskIncrementTick>
    2de2:	41 e0       	ldi	r20, 0x01	; 1
    2de4:	50 e0       	ldi	r21, 0x00	; 0
    2de6:	bf 01       	movw	r22, r30
    2de8:	c8 01       	movw	r24, r16
    2dea:	2f e0       	ldi	r18, 0x0F	; 15
    2dec:	e2 9e       	mul	r14, r18
    2dee:	80 0d       	add	r24, r0
    2df0:	91 1d       	adc	r25, r1
    2df2:	11 24       	eor	r1, r1
    2df4:	0e 94 26 0d 	call	0x1a4c	; 0x1a4c <prvListTaskWithinSingleList.part.1>
    2df8:	be cf       	rjmp	.-132    	; 0x2d76 <uxTaskGetSystemState+0x4e>
    2dfa:	e1 2c       	mov	r14, r1
    2dfc:	0e 94 39 15 	call	0x2a72	; 0x2a72 <xTaskResumeAll>
    2e00:	8e 2d       	mov	r24, r14
    2e02:	cd b7       	in	r28, 0x3d	; 61
    2e04:	de b7       	in	r29, 0x3e	; 62
    2e06:	e6 e0       	ldi	r30, 0x06	; 6
    2e08:	0c 94 ba 27 	jmp	0x4f74	; 0x4f74 <__epilogue_restores__+0x18>
    2e0c:	44 c0       	rjmp	.+136    	; 0x2e96 <xTaskIncrementTick>
    2e0e:	42 e0       	ldi	r20, 0x02	; 2
    2e10:	50 e0       	ldi	r21, 0x00	; 0
    2e12:	bf 01       	movw	r22, r30
    2e14:	c8 01       	movw	r24, r16
    2e16:	2f e0       	ldi	r18, 0x0F	; 15
    2e18:	e2 9e       	mul	r14, r18
    2e1a:	80 0d       	add	r24, r0
    2e1c:	91 1d       	adc	r25, r1
    2e1e:	11 24       	eor	r1, r1
    2e20:	0e 94 26 0d 	call	0x1a4c	; 0x1a4c <prvListTaskWithinSingleList.part.1>
    2e24:	e8 0e       	add	r14, r24
    2e26:	e0 91 7a 14 	lds	r30, 0x147A
    2e2a:	f0 91 7b 14 	lds	r31, 0x147B
    2e2e:	80 81       	ld	r24, Z
    2e30:	88 23       	and	r24, r24
    2e32:	09 f4       	brne	.+2      	; 0x2e36 <uxTaskGetSystemState+0x10e>
    2e34:	b3 cf       	rjmp	.-154    	; 0x2d9c <uxTaskGetSystemState+0x74>
    2e36:	42 e0       	ldi	r20, 0x02	; 2
    2e38:	50 e0       	ldi	r21, 0x00	; 0
    2e3a:	bf 01       	movw	r22, r30
    2e3c:	c8 01       	movw	r24, r16
    2e3e:	2f e0       	ldi	r18, 0x0F	; 15
    2e40:	e2 9e       	mul	r14, r18
    2e42:	80 0d       	add	r24, r0
    2e44:	91 1d       	adc	r25, r1
    2e46:	11 24       	eor	r1, r1
    2e48:	0e 94 26 0d 	call	0x1a4c	; 0x1a4c <prvListTaskWithinSingleList.part.1>
    2e4c:	e8 0e       	add	r14, r24
    2e4e:	80 91 68 14 	lds	r24, 0x1468
    2e52:	88 23       	and	r24, r24
    2e54:	09 f4       	brne	.+2      	; 0x2e58 <uxTaskGetSystemState+0x130>
    2e56:	a8 cf       	rjmp	.-176    	; 0x2da8 <uxTaskGetSystemState+0x80>
    2e58:	44 e0       	ldi	r20, 0x04	; 4
    2e5a:	50 e0       	ldi	r21, 0x00	; 0
    2e5c:	68 e6       	ldi	r22, 0x68	; 104
    2e5e:	74 e1       	ldi	r23, 0x14	; 20
    2e60:	c8 01       	movw	r24, r16
    2e62:	2f e0       	ldi	r18, 0x0F	; 15
    2e64:	e2 9e       	mul	r14, r18
    2e66:	80 0d       	add	r24, r0
    2e68:	91 1d       	adc	r25, r1
    2e6a:	11 24       	eor	r1, r1
    2e6c:	0e 94 26 0d 	call	0x1a4c	; 0x1a4c <prvListTaskWithinSingleList.part.1>
    2e70:	e8 0e       	add	r14, r24
    2e72:	80 91 5e 14 	lds	r24, 0x145E
    2e76:	88 23       	and	r24, r24
    2e78:	09 f4       	brne	.+2      	; 0x2e7c <uxTaskGetSystemState+0x154>
    2e7a:	9c cf       	rjmp	.-200    	; 0x2db4 <uxTaskGetSystemState+0x8c>
    2e7c:	43 e0       	ldi	r20, 0x03	; 3
    2e7e:	50 e0       	ldi	r21, 0x00	; 0
    2e80:	6e e5       	ldi	r22, 0x5E	; 94
    2e82:	74 e1       	ldi	r23, 0x14	; 20
    2e84:	c8 01       	movw	r24, r16
    2e86:	2f e0       	ldi	r18, 0x0F	; 15
    2e88:	e2 9e       	mul	r14, r18
    2e8a:	80 0d       	add	r24, r0
    2e8c:	91 1d       	adc	r25, r1
    2e8e:	11 24       	eor	r1, r1
    2e90:	0e 94 26 0d 	call	0x1a4c	; 0x1a4c <prvListTaskWithinSingleList.part.1>
    2e94:	90 cf       	rjmp	.-224    	; 0x2db6 <uxTaskGetSystemState+0x8e>

00002e96 <xTaskIncrementTick>:
    2e96:	df 92       	push	r13
    2e98:	ef 92       	push	r14
    2e9a:	ff 92       	push	r15
    2e9c:	0f 93       	push	r16
    2e9e:	1f 93       	push	r17
    2ea0:	cf 93       	push	r28
    2ea2:	df 93       	push	r29
    2ea4:	80 91 54 14 	lds	r24, 0x1454
    2ea8:	81 11       	cpse	r24, r1
    2eaa:	b0 c0       	rjmp	.+352    	; 0x300c <xTaskIncrementTick+0x176>
    2eac:	80 91 5b 14 	lds	r24, 0x145B
    2eb0:	90 91 5c 14 	lds	r25, 0x145C
    2eb4:	01 96       	adiw	r24, 0x01	; 1
    2eb6:	90 93 5c 14 	sts	0x145C, r25
    2eba:	80 93 5b 14 	sts	0x145B, r24
    2ebe:	e0 90 5b 14 	lds	r14, 0x145B
    2ec2:	f0 90 5c 14 	lds	r15, 0x145C
    2ec6:	e1 14       	cp	r14, r1
    2ec8:	f1 04       	cpc	r15, r1
    2eca:	11 f5       	brne	.+68     	; 0x2f10 <xTaskIncrementTick+0x7a>
    2ecc:	80 91 7c 14 	lds	r24, 0x147C
    2ed0:	90 91 7d 14 	lds	r25, 0x147D
    2ed4:	20 91 7a 14 	lds	r18, 0x147A
    2ed8:	30 91 7b 14 	lds	r19, 0x147B
    2edc:	30 93 7d 14 	sts	0x147D, r19
    2ee0:	20 93 7c 14 	sts	0x147C, r18
    2ee4:	90 93 7b 14 	sts	0x147B, r25
    2ee8:	80 93 7a 14 	sts	0x147A, r24
    2eec:	80 91 56 14 	lds	r24, 0x1456
    2ef0:	8f 5f       	subi	r24, 0xFF	; 255
    2ef2:	80 93 56 14 	sts	0x1456, r24
    2ef6:	e0 91 7c 14 	lds	r30, 0x147C
    2efa:	f0 91 7d 14 	lds	r31, 0x147D
    2efe:	80 81       	ld	r24, Z
    2f00:	81 11       	cpse	r24, r1
    2f02:	8b c0       	rjmp	.+278    	; 0x301a <xTaskIncrementTick+0x184>
    2f04:	8f ef       	ldi	r24, 0xFF	; 255
    2f06:	9f ef       	ldi	r25, 0xFF	; 255
    2f08:	90 93 05 02 	sts	0x0205, r25
    2f0c:	80 93 04 02 	sts	0x0204, r24
    2f10:	80 91 04 02 	lds	r24, 0x0204
    2f14:	90 91 05 02 	lds	r25, 0x0205
    2f18:	d1 2c       	mov	r13, r1
    2f1a:	e8 16       	cp	r14, r24
    2f1c:	f9 06       	cpc	r15, r25
    2f1e:	08 f4       	brcc	.+2      	; 0x2f22 <xTaskIncrementTick+0x8c>
    2f20:	53 c0       	rjmp	.+166    	; 0x2fc8 <xTaskIncrementTick+0x132>
    2f22:	e0 91 7c 14 	lds	r30, 0x147C
    2f26:	f0 91 7d 14 	lds	r31, 0x147D
    2f2a:	80 81       	ld	r24, Z
    2f2c:	88 23       	and	r24, r24
    2f2e:	09 f4       	brne	.+2      	; 0x2f32 <xTaskIncrementTick+0x9c>
    2f30:	45 c0       	rjmp	.+138    	; 0x2fbc <xTaskIncrementTick+0x126>
    2f32:	e0 91 7c 14 	lds	r30, 0x147C
    2f36:	f0 91 7d 14 	lds	r31, 0x147D
    2f3a:	05 80       	ldd	r0, Z+5	; 0x05
    2f3c:	f6 81       	ldd	r31, Z+6	; 0x06
    2f3e:	e0 2d       	mov	r30, r0
    2f40:	c6 81       	ldd	r28, Z+6	; 0x06
    2f42:	d7 81       	ldd	r29, Z+7	; 0x07
    2f44:	2a 81       	ldd	r18, Y+2	; 0x02
    2f46:	3b 81       	ldd	r19, Y+3	; 0x03
    2f48:	e2 16       	cp	r14, r18
    2f4a:	f3 06       	cpc	r15, r19
    2f4c:	08 f4       	brcc	.+2      	; 0x2f50 <xTaskIncrementTick+0xba>
    2f4e:	7f c0       	rjmp	.+254    	; 0x304e <xTaskIncrementTick+0x1b8>
    2f50:	8e 01       	movw	r16, r28
    2f52:	0e 5f       	subi	r16, 0xFE	; 254
    2f54:	1f 4f       	sbci	r17, 0xFF	; 255
    2f56:	c8 01       	movw	r24, r16
    2f58:	0e 94 38 27 	call	0x4e70	; 0x4e70 <uxListRemove>
    2f5c:	8c 89       	ldd	r24, Y+20	; 0x14
    2f5e:	9d 89       	ldd	r25, Y+21	; 0x15
    2f60:	89 2b       	or	r24, r25
    2f62:	21 f0       	breq	.+8      	; 0x2f6c <xTaskIncrementTick+0xd6>
    2f64:	ce 01       	movw	r24, r28
    2f66:	0c 96       	adiw	r24, 0x0c	; 12
    2f68:	0e 94 38 27 	call	0x4e70	; 0x4e70 <uxListRemove>
    2f6c:	4e 89       	ldd	r20, Y+22	; 0x16
    2f6e:	80 91 5a 14 	lds	r24, 0x145A
    2f72:	84 17       	cp	r24, r20
    2f74:	10 f4       	brcc	.+4      	; 0x2f7a <xTaskIncrementTick+0xe4>
    2f76:	40 93 5a 14 	sts	0x145A, r20
    2f7a:	50 e0       	ldi	r21, 0x00	; 0
    2f7c:	ca 01       	movw	r24, r20
    2f7e:	88 0f       	add	r24, r24
    2f80:	99 1f       	adc	r25, r25
    2f82:	88 0f       	add	r24, r24
    2f84:	99 1f       	adc	r25, r25
    2f86:	88 0f       	add	r24, r24
    2f88:	99 1f       	adc	r25, r25
    2f8a:	84 0f       	add	r24, r20
    2f8c:	95 1f       	adc	r25, r21
    2f8e:	b8 01       	movw	r22, r16
    2f90:	80 57       	subi	r24, 0x70	; 112
    2f92:	9b 4e       	sbci	r25, 0xEB	; 235
    2f94:	0e 94 e6 26 	call	0x4dcc	; 0x4dcc <vListInsertEnd>
    2f98:	e0 91 b4 14 	lds	r30, 0x14B4
    2f9c:	f0 91 b5 14 	lds	r31, 0x14B5
    2fa0:	9e 89       	ldd	r25, Y+22	; 0x16
    2fa2:	86 89       	ldd	r24, Z+22	; 0x16
    2fa4:	98 17       	cp	r25, r24
    2fa6:	08 f4       	brcc	.+2      	; 0x2faa <xTaskIncrementTick+0x114>
    2fa8:	bc cf       	rjmp	.-136    	; 0x2f22 <xTaskIncrementTick+0x8c>
    2faa:	dd 24       	eor	r13, r13
    2fac:	d3 94       	inc	r13
    2fae:	e0 91 7c 14 	lds	r30, 0x147C
    2fb2:	f0 91 7d 14 	lds	r31, 0x147D
    2fb6:	80 81       	ld	r24, Z
    2fb8:	81 11       	cpse	r24, r1
    2fba:	bb cf       	rjmp	.-138    	; 0x2f32 <xTaskIncrementTick+0x9c>
    2fbc:	8f ef       	ldi	r24, 0xFF	; 255
    2fbe:	9f ef       	ldi	r25, 0xFF	; 255
    2fc0:	90 93 05 02 	sts	0x0205, r25
    2fc4:	80 93 04 02 	sts	0x0204, r24
    2fc8:	e0 91 b4 14 	lds	r30, 0x14B4
    2fcc:	f0 91 b5 14 	lds	r31, 0x14B5
    2fd0:	86 89       	ldd	r24, Z+22	; 0x16
    2fd2:	90 e0       	ldi	r25, 0x00	; 0
    2fd4:	fc 01       	movw	r30, r24
    2fd6:	ee 0f       	add	r30, r30
    2fd8:	ff 1f       	adc	r31, r31
    2fda:	ee 0f       	add	r30, r30
    2fdc:	ff 1f       	adc	r31, r31
    2fde:	ee 0f       	add	r30, r30
    2fe0:	ff 1f       	adc	r31, r31
    2fe2:	e8 0f       	add	r30, r24
    2fe4:	f9 1f       	adc	r31, r25
    2fe6:	e0 57       	subi	r30, 0x70	; 112
    2fe8:	fb 4e       	sbci	r31, 0xEB	; 235
    2fea:	80 81       	ld	r24, Z
    2fec:	82 30       	cpi	r24, 0x02	; 2
    2fee:	10 f0       	brcs	.+4      	; 0x2ff4 <xTaskIncrementTick+0x15e>
    2ff0:	dd 24       	eor	r13, r13
    2ff2:	d3 94       	inc	r13
    2ff4:	80 91 57 14 	lds	r24, 0x1457
    2ff8:	88 23       	and	r24, r24
    2ffa:	11 f0       	breq	.+4      	; 0x3000 <xTaskIncrementTick+0x16a>
    2ffc:	dd 24       	eor	r13, r13
    2ffe:	d3 94       	inc	r13
    3000:	8d 2d       	mov	r24, r13
    3002:	cd b7       	in	r28, 0x3d	; 61
    3004:	de b7       	in	r29, 0x3e	; 62
    3006:	e7 e0       	ldi	r30, 0x07	; 7
    3008:	0c 94 b9 27 	jmp	0x4f72	; 0x4f72 <__epilogue_restores__+0x16>
    300c:	80 91 58 14 	lds	r24, 0x1458
    3010:	8f 5f       	subi	r24, 0xFF	; 255
    3012:	80 93 58 14 	sts	0x1458, r24
    3016:	d1 2c       	mov	r13, r1
    3018:	ed cf       	rjmp	.-38     	; 0x2ff4 <xTaskIncrementTick+0x15e>
    301a:	e0 91 7c 14 	lds	r30, 0x147C
    301e:	f0 91 7d 14 	lds	r31, 0x147D
    3022:	05 80       	ldd	r0, Z+5	; 0x05
    3024:	f6 81       	ldd	r31, Z+6	; 0x06
    3026:	e0 2d       	mov	r30, r0
    3028:	06 80       	ldd	r0, Z+6	; 0x06
    302a:	f7 81       	ldd	r31, Z+7	; 0x07
    302c:	e0 2d       	mov	r30, r0
    302e:	82 81       	ldd	r24, Z+2	; 0x02
    3030:	93 81       	ldd	r25, Z+3	; 0x03
    3032:	90 93 05 02 	sts	0x0205, r25
    3036:	80 93 04 02 	sts	0x0204, r24
    303a:	80 91 04 02 	lds	r24, 0x0204
    303e:	90 91 05 02 	lds	r25, 0x0205
    3042:	d1 2c       	mov	r13, r1
    3044:	e8 16       	cp	r14, r24
    3046:	f9 06       	cpc	r15, r25
    3048:	08 f4       	brcc	.+2      	; 0x304c <xTaskIncrementTick+0x1b6>
    304a:	be cf       	rjmp	.-132    	; 0x2fc8 <xTaskIncrementTick+0x132>
    304c:	6a cf       	rjmp	.-300    	; 0x2f22 <xTaskIncrementTick+0x8c>
    304e:	30 93 05 02 	sts	0x0205, r19
    3052:	20 93 04 02 	sts	0x0204, r18
    3056:	b8 cf       	rjmp	.-144    	; 0x2fc8 <xTaskIncrementTick+0x132>

00003058 <vTaskSwitchContext>:
    3058:	0f 93       	push	r16
    305a:	1f 93       	push	r17
    305c:	80 91 54 14 	lds	r24, 0x1454
    3060:	81 11       	cpse	r24, r1
    3062:	93 c0       	rjmp	.+294    	; 0x318a <vTaskSwitchContext+0x132>
    3064:	10 92 57 14 	sts	0x1457, r1
    3068:	80 91 84 00 	lds	r24, 0x0084
    306c:	90 91 85 00 	lds	r25, 0x0085
    3070:	a0 e0       	ldi	r26, 0x00	; 0
    3072:	b0 e0       	ldi	r27, 0x00	; 0
    3074:	80 93 4c 14 	sts	0x144C, r24
    3078:	90 93 4d 14 	sts	0x144D, r25
    307c:	a0 93 4e 14 	sts	0x144E, r26
    3080:	b0 93 4f 14 	sts	0x144F, r27
    3084:	40 91 50 14 	lds	r20, 0x1450
    3088:	50 91 51 14 	lds	r21, 0x1451
    308c:	60 91 52 14 	lds	r22, 0x1452
    3090:	70 91 53 14 	lds	r23, 0x1453
    3094:	48 17       	cp	r20, r24
    3096:	59 07       	cpc	r21, r25
    3098:	6a 07       	cpc	r22, r26
    309a:	7b 07       	cpc	r23, r27
    309c:	b0 f4       	brcc	.+44     	; 0x30ca <vTaskSwitchContext+0x72>
    309e:	e0 91 b4 14 	lds	r30, 0x14B4
    30a2:	f0 91 b5 14 	lds	r31, 0x14B5
    30a6:	8c 01       	movw	r16, r24
    30a8:	9d 01       	movw	r18, r26
    30aa:	04 1b       	sub	r16, r20
    30ac:	15 0b       	sbc	r17, r21
    30ae:	26 0b       	sbc	r18, r22
    30b0:	37 0b       	sbc	r19, r23
    30b2:	44 a1       	ldd	r20, Z+36	; 0x24
    30b4:	55 a1       	ldd	r21, Z+37	; 0x25
    30b6:	66 a1       	ldd	r22, Z+38	; 0x26
    30b8:	77 a1       	ldd	r23, Z+39	; 0x27
    30ba:	40 0f       	add	r20, r16
    30bc:	51 1f       	adc	r21, r17
    30be:	62 1f       	adc	r22, r18
    30c0:	73 1f       	adc	r23, r19
    30c2:	44 a3       	std	Z+36, r20	; 0x24
    30c4:	55 a3       	std	Z+37, r21	; 0x25
    30c6:	66 a3       	std	Z+38, r22	; 0x26
    30c8:	77 a3       	std	Z+39, r23	; 0x27
    30ca:	80 93 50 14 	sts	0x1450, r24
    30ce:	90 93 51 14 	sts	0x1451, r25
    30d2:	a0 93 52 14 	sts	0x1452, r26
    30d6:	b0 93 53 14 	sts	0x1453, r27
    30da:	a0 91 b4 14 	lds	r26, 0x14B4
    30de:	b0 91 b5 14 	lds	r27, 0x14B5
    30e2:	e0 91 b4 14 	lds	r30, 0x14B4
    30e6:	f0 91 b5 14 	lds	r31, 0x14B5
    30ea:	2d 91       	ld	r18, X+
    30ec:	3c 91       	ld	r19, X
    30ee:	87 89       	ldd	r24, Z+23	; 0x17
    30f0:	90 8d       	ldd	r25, Z+24	; 0x18
    30f2:	82 17       	cp	r24, r18
    30f4:	93 07       	cpc	r25, r19
    30f6:	90 f0       	brcs	.+36     	; 0x311c <vTaskSwitchContext+0xc4>
    30f8:	60 91 b4 14 	lds	r22, 0x14B4
    30fc:	70 91 b5 14 	lds	r23, 0x14B5
    3100:	80 91 b4 14 	lds	r24, 0x14B4
    3104:	90 91 b5 14 	lds	r25, 0x14B5
    3108:	67 5e       	subi	r22, 0xE7	; 231
    310a:	7f 4f       	sbci	r23, 0xFF	; 255
    310c:	0e 94 30 03 	call	0x660	; 0x660 <vApplicationStackOverflowHook>
    3110:	05 c0       	rjmp	.+10     	; 0x311c <vTaskSwitchContext+0xc4>
    3112:	80 91 5a 14 	lds	r24, 0x145A
    3116:	81 50       	subi	r24, 0x01	; 1
    3118:	80 93 5a 14 	sts	0x145A, r24
    311c:	80 91 5a 14 	lds	r24, 0x145A
    3120:	90 e0       	ldi	r25, 0x00	; 0
    3122:	fc 01       	movw	r30, r24
    3124:	ee 0f       	add	r30, r30
    3126:	ff 1f       	adc	r31, r31
    3128:	ee 0f       	add	r30, r30
    312a:	ff 1f       	adc	r31, r31
    312c:	ee 0f       	add	r30, r30
    312e:	ff 1f       	adc	r31, r31
    3130:	e8 0f       	add	r30, r24
    3132:	f9 1f       	adc	r31, r25
    3134:	e0 57       	subi	r30, 0x70	; 112
    3136:	fb 4e       	sbci	r31, 0xEB	; 235
    3138:	80 81       	ld	r24, Z
    313a:	88 23       	and	r24, r24
    313c:	51 f3       	breq	.-44     	; 0x3112 <vTaskSwitchContext+0xba>
    313e:	80 91 5a 14 	lds	r24, 0x145A
    3142:	90 e0       	ldi	r25, 0x00	; 0
    3144:	fc 01       	movw	r30, r24
    3146:	ee 0f       	add	r30, r30
    3148:	ff 1f       	adc	r31, r31
    314a:	ee 0f       	add	r30, r30
    314c:	ff 1f       	adc	r31, r31
    314e:	ee 0f       	add	r30, r30
    3150:	ff 1f       	adc	r31, r31
    3152:	e8 0f       	add	r30, r24
    3154:	f9 1f       	adc	r31, r25
    3156:	e0 57       	subi	r30, 0x70	; 112
    3158:	fb 4e       	sbci	r31, 0xEB	; 235
    315a:	a1 81       	ldd	r26, Z+1	; 0x01
    315c:	b2 81       	ldd	r27, Z+2	; 0x02
    315e:	12 96       	adiw	r26, 0x02	; 2
    3160:	0d 90       	ld	r0, X+
    3162:	bc 91       	ld	r27, X
    3164:	a0 2d       	mov	r26, r0
    3166:	b2 83       	std	Z+2, r27	; 0x02
    3168:	a1 83       	std	Z+1, r26	; 0x01
    316a:	cf 01       	movw	r24, r30
    316c:	03 96       	adiw	r24, 0x03	; 3
    316e:	a8 17       	cp	r26, r24
    3170:	b9 07       	cpc	r27, r25
    3172:	89 f0       	breq	.+34     	; 0x3196 <vTaskSwitchContext+0x13e>
    3174:	16 96       	adiw	r26, 0x06	; 6
    3176:	8d 91       	ld	r24, X+
    3178:	9c 91       	ld	r25, X
    317a:	17 97       	sbiw	r26, 0x07	; 7
    317c:	90 93 b5 14 	sts	0x14B5, r25
    3180:	80 93 b4 14 	sts	0x14B4, r24
    3184:	1f 91       	pop	r17
    3186:	0f 91       	pop	r16
    3188:	08 95       	ret
    318a:	81 e0       	ldi	r24, 0x01	; 1
    318c:	80 93 57 14 	sts	0x1457, r24
    3190:	1f 91       	pop	r17
    3192:	0f 91       	pop	r16
    3194:	08 95       	ret
    3196:	12 96       	adiw	r26, 0x02	; 2
    3198:	9c 91       	ld	r25, X
    319a:	12 97       	sbiw	r26, 0x02	; 2
    319c:	13 96       	adiw	r26, 0x03	; 3
    319e:	8c 91       	ld	r24, X
    31a0:	91 83       	std	Z+1, r25	; 0x01
    31a2:	82 83       	std	Z+2, r24	; 0x02
    31a4:	a9 2f       	mov	r26, r25
    31a6:	b8 2f       	mov	r27, r24
    31a8:	e5 cf       	rjmp	.-54     	; 0x3174 <vTaskSwitchContext+0x11c>

000031aa <vTaskPlaceOnEventList>:
    31aa:	0f 93       	push	r16
    31ac:	1f 93       	push	r17
    31ae:	cf 93       	push	r28
    31b0:	df 93       	push	r29
    31b2:	8b 01       	movw	r16, r22
    31b4:	60 91 b4 14 	lds	r22, 0x14B4
    31b8:	70 91 b5 14 	lds	r23, 0x14B5
    31bc:	64 5f       	subi	r22, 0xF4	; 244
    31be:	7f 4f       	sbci	r23, 0xFF	; 255
    31c0:	0e 94 07 27 	call	0x4e0e	; 0x4e0e <vListInsert>
    31c4:	80 91 b4 14 	lds	r24, 0x14B4
    31c8:	90 91 b5 14 	lds	r25, 0x14B5
    31cc:	02 96       	adiw	r24, 0x02	; 2
    31ce:	0e 94 38 27 	call	0x4e70	; 0x4e70 <uxListRemove>
    31d2:	0f 3f       	cpi	r16, 0xFF	; 255
    31d4:	8f ef       	ldi	r24, 0xFF	; 255
    31d6:	18 07       	cpc	r17, r24
    31d8:	e1 f1       	breq	.+120    	; 0x3252 <vTaskPlaceOnEventList+0xa8>
    31da:	c0 91 5b 14 	lds	r28, 0x145B
    31de:	d0 91 5c 14 	lds	r29, 0x145C
    31e2:	c0 0f       	add	r28, r16
    31e4:	d1 1f       	adc	r29, r17
    31e6:	e0 91 b4 14 	lds	r30, 0x14B4
    31ea:	f0 91 b5 14 	lds	r31, 0x14B5
    31ee:	d3 83       	std	Z+3, r29	; 0x03
    31f0:	c2 83       	std	Z+2, r28	; 0x02
    31f2:	80 91 5b 14 	lds	r24, 0x145B
    31f6:	90 91 5c 14 	lds	r25, 0x145C
    31fa:	60 91 b4 14 	lds	r22, 0x14B4
    31fe:	70 91 b5 14 	lds	r23, 0x14B5
    3202:	c8 17       	cp	r28, r24
    3204:	d9 07       	cpc	r29, r25
    3206:	c0 f0       	brcs	.+48     	; 0x3238 <vTaskPlaceOnEventList+0x8e>
    3208:	80 91 7c 14 	lds	r24, 0x147C
    320c:	90 91 7d 14 	lds	r25, 0x147D
    3210:	6e 5f       	subi	r22, 0xFE	; 254
    3212:	7f 4f       	sbci	r23, 0xFF	; 255
    3214:	0e 94 07 27 	call	0x4e0e	; 0x4e0e <vListInsert>
    3218:	80 91 04 02 	lds	r24, 0x0204
    321c:	90 91 05 02 	lds	r25, 0x0205
    3220:	c8 17       	cp	r28, r24
    3222:	d9 07       	cpc	r29, r25
    3224:	20 f4       	brcc	.+8      	; 0x322e <vTaskPlaceOnEventList+0x84>
    3226:	d0 93 05 02 	sts	0x0205, r29
    322a:	c0 93 04 02 	sts	0x0204, r28
    322e:	df 91       	pop	r29
    3230:	cf 91       	pop	r28
    3232:	1f 91       	pop	r17
    3234:	0f 91       	pop	r16
    3236:	08 95       	ret
    3238:	80 91 7a 14 	lds	r24, 0x147A
    323c:	90 91 7b 14 	lds	r25, 0x147B
    3240:	6e 5f       	subi	r22, 0xFE	; 254
    3242:	7f 4f       	sbci	r23, 0xFF	; 255
    3244:	0e 94 07 27 	call	0x4e0e	; 0x4e0e <vListInsert>
    3248:	df 91       	pop	r29
    324a:	cf 91       	pop	r28
    324c:	1f 91       	pop	r17
    324e:	0f 91       	pop	r16
    3250:	08 95       	ret
    3252:	60 91 b4 14 	lds	r22, 0x14B4
    3256:	70 91 b5 14 	lds	r23, 0x14B5
    325a:	6e 5f       	subi	r22, 0xFE	; 254
    325c:	7f 4f       	sbci	r23, 0xFF	; 255
    325e:	8e e5       	ldi	r24, 0x5E	; 94
    3260:	94 e1       	ldi	r25, 0x14	; 20
    3262:	0e 94 e6 26 	call	0x4dcc	; 0x4dcc <vListInsertEnd>
    3266:	e3 cf       	rjmp	.-58     	; 0x322e <vTaskPlaceOnEventList+0x84>

00003268 <vTaskPlaceOnUnorderedEventList>:
    3268:	0f 93       	push	r16
    326a:	1f 93       	push	r17
    326c:	cf 93       	push	r28
    326e:	df 93       	push	r29
    3270:	8a 01       	movw	r16, r20
    3272:	e0 91 b4 14 	lds	r30, 0x14B4
    3276:	f0 91 b5 14 	lds	r31, 0x14B5
    327a:	70 68       	ori	r23, 0x80	; 128
    327c:	75 87       	std	Z+13, r23	; 0x0d
    327e:	64 87       	std	Z+12, r22	; 0x0c
    3280:	60 91 b4 14 	lds	r22, 0x14B4
    3284:	70 91 b5 14 	lds	r23, 0x14B5
    3288:	64 5f       	subi	r22, 0xF4	; 244
    328a:	7f 4f       	sbci	r23, 0xFF	; 255
    328c:	0e 94 e6 26 	call	0x4dcc	; 0x4dcc <vListInsertEnd>
    3290:	80 91 b4 14 	lds	r24, 0x14B4
    3294:	90 91 b5 14 	lds	r25, 0x14B5
    3298:	02 96       	adiw	r24, 0x02	; 2
    329a:	0e 94 38 27 	call	0x4e70	; 0x4e70 <uxListRemove>
    329e:	0f 3f       	cpi	r16, 0xFF	; 255
    32a0:	8f ef       	ldi	r24, 0xFF	; 255
    32a2:	18 07       	cpc	r17, r24
    32a4:	e1 f1       	breq	.+120    	; 0x331e <vTaskPlaceOnUnorderedEventList+0xb6>
    32a6:	c0 91 5b 14 	lds	r28, 0x145B
    32aa:	d0 91 5c 14 	lds	r29, 0x145C
    32ae:	c0 0f       	add	r28, r16
    32b0:	d1 1f       	adc	r29, r17
    32b2:	e0 91 b4 14 	lds	r30, 0x14B4
    32b6:	f0 91 b5 14 	lds	r31, 0x14B5
    32ba:	d3 83       	std	Z+3, r29	; 0x03
    32bc:	c2 83       	std	Z+2, r28	; 0x02
    32be:	80 91 5b 14 	lds	r24, 0x145B
    32c2:	90 91 5c 14 	lds	r25, 0x145C
    32c6:	60 91 b4 14 	lds	r22, 0x14B4
    32ca:	70 91 b5 14 	lds	r23, 0x14B5
    32ce:	c8 17       	cp	r28, r24
    32d0:	d9 07       	cpc	r29, r25
    32d2:	c0 f0       	brcs	.+48     	; 0x3304 <vTaskPlaceOnUnorderedEventList+0x9c>
    32d4:	80 91 7c 14 	lds	r24, 0x147C
    32d8:	90 91 7d 14 	lds	r25, 0x147D
    32dc:	6e 5f       	subi	r22, 0xFE	; 254
    32de:	7f 4f       	sbci	r23, 0xFF	; 255
    32e0:	0e 94 07 27 	call	0x4e0e	; 0x4e0e <vListInsert>
    32e4:	80 91 04 02 	lds	r24, 0x0204
    32e8:	90 91 05 02 	lds	r25, 0x0205
    32ec:	c8 17       	cp	r28, r24
    32ee:	d9 07       	cpc	r29, r25
    32f0:	20 f4       	brcc	.+8      	; 0x32fa <vTaskPlaceOnUnorderedEventList+0x92>
    32f2:	d0 93 05 02 	sts	0x0205, r29
    32f6:	c0 93 04 02 	sts	0x0204, r28
    32fa:	df 91       	pop	r29
    32fc:	cf 91       	pop	r28
    32fe:	1f 91       	pop	r17
    3300:	0f 91       	pop	r16
    3302:	08 95       	ret
    3304:	80 91 7a 14 	lds	r24, 0x147A
    3308:	90 91 7b 14 	lds	r25, 0x147B
    330c:	6e 5f       	subi	r22, 0xFE	; 254
    330e:	7f 4f       	sbci	r23, 0xFF	; 255
    3310:	0e 94 07 27 	call	0x4e0e	; 0x4e0e <vListInsert>
    3314:	df 91       	pop	r29
    3316:	cf 91       	pop	r28
    3318:	1f 91       	pop	r17
    331a:	0f 91       	pop	r16
    331c:	08 95       	ret
    331e:	60 91 b4 14 	lds	r22, 0x14B4
    3322:	70 91 b5 14 	lds	r23, 0x14B5
    3326:	6e 5f       	subi	r22, 0xFE	; 254
    3328:	7f 4f       	sbci	r23, 0xFF	; 255
    332a:	8e e5       	ldi	r24, 0x5E	; 94
    332c:	94 e1       	ldi	r25, 0x14	; 20
    332e:	0e 94 e6 26 	call	0x4dcc	; 0x4dcc <vListInsertEnd>
    3332:	e3 cf       	rjmp	.-58     	; 0x32fa <vTaskPlaceOnUnorderedEventList+0x92>

00003334 <xTaskRemoveFromEventList>:
    3334:	0f 93       	push	r16
    3336:	1f 93       	push	r17
    3338:	cf 93       	push	r28
    333a:	df 93       	push	r29
    333c:	dc 01       	movw	r26, r24
    333e:	15 96       	adiw	r26, 0x05	; 5
    3340:	ed 91       	ld	r30, X+
    3342:	fc 91       	ld	r31, X
    3344:	16 97       	sbiw	r26, 0x06	; 6
    3346:	c6 81       	ldd	r28, Z+6	; 0x06
    3348:	d7 81       	ldd	r29, Z+7	; 0x07
    334a:	8e 01       	movw	r16, r28
    334c:	04 5f       	subi	r16, 0xF4	; 244
    334e:	1f 4f       	sbci	r17, 0xFF	; 255
    3350:	c8 01       	movw	r24, r16
    3352:	0e 94 38 27 	call	0x4e70	; 0x4e70 <uxListRemove>
    3356:	80 91 54 14 	lds	r24, 0x1454
    335a:	81 11       	cpse	r24, r1
    335c:	29 c0       	rjmp	.+82     	; 0x33b0 <xTaskRemoveFromEventList+0x7c>
    335e:	0a 50       	subi	r16, 0x0A	; 10
    3360:	11 09       	sbc	r17, r1
    3362:	c8 01       	movw	r24, r16
    3364:	0e 94 38 27 	call	0x4e70	; 0x4e70 <uxListRemove>
    3368:	2e 89       	ldd	r18, Y+22	; 0x16
    336a:	80 91 5a 14 	lds	r24, 0x145A
    336e:	82 17       	cp	r24, r18
    3370:	28 f1       	brcs	.+74     	; 0x33bc <xTaskRemoveFromEventList+0x88>
    3372:	30 e0       	ldi	r19, 0x00	; 0
    3374:	c9 01       	movw	r24, r18
    3376:	88 0f       	add	r24, r24
    3378:	99 1f       	adc	r25, r25
    337a:	88 0f       	add	r24, r24
    337c:	99 1f       	adc	r25, r25
    337e:	88 0f       	add	r24, r24
    3380:	99 1f       	adc	r25, r25
    3382:	82 0f       	add	r24, r18
    3384:	93 1f       	adc	r25, r19
    3386:	b8 01       	movw	r22, r16
    3388:	80 57       	subi	r24, 0x70	; 112
    338a:	9b 4e       	sbci	r25, 0xEB	; 235
    338c:	0e 94 e6 26 	call	0x4dcc	; 0x4dcc <vListInsertEnd>
    3390:	e0 91 b4 14 	lds	r30, 0x14B4
    3394:	f0 91 b5 14 	lds	r31, 0x14B5
    3398:	9e 89       	ldd	r25, Y+22	; 0x16
    339a:	86 89       	ldd	r24, Z+22	; 0x16
    339c:	89 17       	cp	r24, r25
    339e:	88 f4       	brcc	.+34     	; 0x33c2 <xTaskRemoveFromEventList+0x8e>
    33a0:	81 e0       	ldi	r24, 0x01	; 1
    33a2:	80 93 57 14 	sts	0x1457, r24
    33a6:	df 91       	pop	r29
    33a8:	cf 91       	pop	r28
    33aa:	1f 91       	pop	r17
    33ac:	0f 91       	pop	r16
    33ae:	08 95       	ret
    33b0:	b8 01       	movw	r22, r16
    33b2:	81 e7       	ldi	r24, 0x71	; 113
    33b4:	94 e1       	ldi	r25, 0x14	; 20
    33b6:	0e 94 e6 26 	call	0x4dcc	; 0x4dcc <vListInsertEnd>
    33ba:	ea cf       	rjmp	.-44     	; 0x3390 <xTaskRemoveFromEventList+0x5c>
    33bc:	20 93 5a 14 	sts	0x145A, r18
    33c0:	d8 cf       	rjmp	.-80     	; 0x3372 <xTaskRemoveFromEventList+0x3e>
    33c2:	80 e0       	ldi	r24, 0x00	; 0
    33c4:	df 91       	pop	r29
    33c6:	cf 91       	pop	r28
    33c8:	1f 91       	pop	r17
    33ca:	0f 91       	pop	r16
    33cc:	08 95       	ret

000033ce <xTaskRemoveFromUnorderedEventList>:
    33ce:	0f 93       	push	r16
    33d0:	1f 93       	push	r17
    33d2:	cf 93       	push	r28
    33d4:	df 93       	push	r29
    33d6:	70 68       	ori	r23, 0x80	; 128
    33d8:	fc 01       	movw	r30, r24
    33da:	71 83       	std	Z+1, r23	; 0x01
    33dc:	60 83       	st	Z, r22
    33de:	c6 81       	ldd	r28, Z+6	; 0x06
    33e0:	d7 81       	ldd	r29, Z+7	; 0x07
    33e2:	0e 94 38 27 	call	0x4e70	; 0x4e70 <uxListRemove>
    33e6:	8e 01       	movw	r16, r28
    33e8:	0e 5f       	subi	r16, 0xFE	; 254
    33ea:	1f 4f       	sbci	r17, 0xFF	; 255
    33ec:	c8 01       	movw	r24, r16
    33ee:	0e 94 38 27 	call	0x4e70	; 0x4e70 <uxListRemove>
    33f2:	2e 89       	ldd	r18, Y+22	; 0x16
    33f4:	80 91 5a 14 	lds	r24, 0x145A
    33f8:	82 17       	cp	r24, r18
    33fa:	10 f4       	brcc	.+4      	; 0x3400 <xTaskRemoveFromUnorderedEventList+0x32>
    33fc:	20 93 5a 14 	sts	0x145A, r18
    3400:	30 e0       	ldi	r19, 0x00	; 0
    3402:	c9 01       	movw	r24, r18
    3404:	88 0f       	add	r24, r24
    3406:	99 1f       	adc	r25, r25
    3408:	88 0f       	add	r24, r24
    340a:	99 1f       	adc	r25, r25
    340c:	88 0f       	add	r24, r24
    340e:	99 1f       	adc	r25, r25
    3410:	82 0f       	add	r24, r18
    3412:	93 1f       	adc	r25, r19
    3414:	b8 01       	movw	r22, r16
    3416:	80 57       	subi	r24, 0x70	; 112
    3418:	9b 4e       	sbci	r25, 0xEB	; 235
    341a:	0e 94 e6 26 	call	0x4dcc	; 0x4dcc <vListInsertEnd>
    341e:	e0 91 b4 14 	lds	r30, 0x14B4
    3422:	f0 91 b5 14 	lds	r31, 0x14B5
    3426:	9e 89       	ldd	r25, Y+22	; 0x16
    3428:	86 89       	ldd	r24, Z+22	; 0x16
    342a:	89 17       	cp	r24, r25
    342c:	40 f4       	brcc	.+16     	; 0x343e <xTaskRemoveFromUnorderedEventList+0x70>
    342e:	81 e0       	ldi	r24, 0x01	; 1
    3430:	80 93 57 14 	sts	0x1457, r24
    3434:	df 91       	pop	r29
    3436:	cf 91       	pop	r28
    3438:	1f 91       	pop	r17
    343a:	0f 91       	pop	r16
    343c:	08 95       	ret
    343e:	80 e0       	ldi	r24, 0x00	; 0
    3440:	df 91       	pop	r29
    3442:	cf 91       	pop	r28
    3444:	1f 91       	pop	r17
    3446:	0f 91       	pop	r16
    3448:	08 95       	ret

0000344a <vTaskSetTimeOutState>:
    344a:	20 91 56 14 	lds	r18, 0x1456
    344e:	fc 01       	movw	r30, r24
    3450:	20 83       	st	Z, r18
    3452:	20 91 5b 14 	lds	r18, 0x145B
    3456:	30 91 5c 14 	lds	r19, 0x145C
    345a:	32 83       	std	Z+2, r19	; 0x02
    345c:	21 83       	std	Z+1, r18	; 0x01
    345e:	08 95       	ret

00003460 <xTaskCheckForTimeOut>:
    3460:	fc 01       	movw	r30, r24
    3462:	0f b6       	in	r0, 0x3f	; 63
    3464:	f8 94       	cli
    3466:	0f 92       	push	r0
    3468:	20 91 5b 14 	lds	r18, 0x145B
    346c:	30 91 5c 14 	lds	r19, 0x145C
    3470:	db 01       	movw	r26, r22
    3472:	8d 91       	ld	r24, X+
    3474:	9c 91       	ld	r25, X
    3476:	8f 3f       	cpi	r24, 0xFF	; 255
    3478:	bf ef       	ldi	r27, 0xFF	; 255
    347a:	9b 07       	cpc	r25, r27
    347c:	89 f1       	breq	.+98     	; 0x34e0 <xTaskCheckForTimeOut+0x80>
    347e:	40 91 56 14 	lds	r20, 0x1456
    3482:	50 81       	ld	r21, Z
    3484:	54 17       	cp	r21, r20
    3486:	19 f1       	breq	.+70     	; 0x34ce <xTaskCheckForTimeOut+0x6e>
    3488:	41 81       	ldd	r20, Z+1	; 0x01
    348a:	52 81       	ldd	r21, Z+2	; 0x02
    348c:	24 17       	cp	r18, r20
    348e:	35 07       	cpc	r19, r21
    3490:	d0 f4       	brcc	.+52     	; 0x34c6 <xTaskCheckForTimeOut+0x66>
    3492:	d9 01       	movw	r26, r18
    3494:	a4 1b       	sub	r26, r20
    3496:	b5 0b       	sbc	r27, r21
    3498:	a8 17       	cp	r26, r24
    349a:	b9 07       	cpc	r27, r25
    349c:	a0 f4       	brcc	.+40     	; 0x34c6 <xTaskCheckForTimeOut+0x66>
    349e:	82 1b       	sub	r24, r18
    34a0:	93 0b       	sbc	r25, r19
    34a2:	84 0f       	add	r24, r20
    34a4:	95 1f       	adc	r25, r21
    34a6:	db 01       	movw	r26, r22
    34a8:	8d 93       	st	X+, r24
    34aa:	9c 93       	st	X, r25
    34ac:	80 91 56 14 	lds	r24, 0x1456
    34b0:	80 83       	st	Z, r24
    34b2:	80 91 5b 14 	lds	r24, 0x145B
    34b6:	90 91 5c 14 	lds	r25, 0x145C
    34ba:	92 83       	std	Z+2, r25	; 0x02
    34bc:	81 83       	std	Z+1, r24	; 0x01
    34be:	80 e0       	ldi	r24, 0x00	; 0
    34c0:	0f 90       	pop	r0
    34c2:	0f be       	out	0x3f, r0	; 63
    34c4:	08 95       	ret
    34c6:	81 e0       	ldi	r24, 0x01	; 1
    34c8:	0f 90       	pop	r0
    34ca:	0f be       	out	0x3f, r0	; 63
    34cc:	08 95       	ret
    34ce:	41 81       	ldd	r20, Z+1	; 0x01
    34d0:	52 81       	ldd	r21, Z+2	; 0x02
    34d2:	d9 01       	movw	r26, r18
    34d4:	a4 1b       	sub	r26, r20
    34d6:	b5 0b       	sbc	r27, r21
    34d8:	a8 17       	cp	r26, r24
    34da:	b9 07       	cpc	r27, r25
    34dc:	00 f3       	brcs	.-64     	; 0x349e <xTaskCheckForTimeOut+0x3e>
    34de:	f3 cf       	rjmp	.-26     	; 0x34c6 <xTaskCheckForTimeOut+0x66>
    34e0:	80 e0       	ldi	r24, 0x00	; 0
    34e2:	0f 90       	pop	r0
    34e4:	0f be       	out	0x3f, r0	; 63
    34e6:	08 95       	ret

000034e8 <vTaskMissedYield>:
    34e8:	81 e0       	ldi	r24, 0x01	; 1
    34ea:	80 93 57 14 	sts	0x1457, r24
    34ee:	08 95       	ret

000034f0 <uxTaskGetTaskNumber>:
    34f0:	00 97       	sbiw	r24, 0x00	; 0
    34f2:	19 f0       	breq	.+6      	; 0x34fa <uxTaskGetTaskNumber+0xa>
    34f4:	fc 01       	movw	r30, r24
    34f6:	82 a1       	ldd	r24, Z+34	; 0x22
    34f8:	08 95       	ret
    34fa:	80 e0       	ldi	r24, 0x00	; 0
    34fc:	08 95       	ret

000034fe <vTaskSetTaskNumber>:
    34fe:	00 97       	sbiw	r24, 0x00	; 0
    3500:	11 f0       	breq	.+4      	; 0x3506 <vTaskSetTaskNumber+0x8>
    3502:	fc 01       	movw	r30, r24
    3504:	62 a3       	std	Z+34, r22	; 0x22
    3506:	08 95       	ret

00003508 <uxTaskGetStackHighWaterMark>:
    3508:	00 97       	sbiw	r24, 0x00	; 0
    350a:	99 f0       	breq	.+38     	; 0x3532 <uxTaskGetStackHighWaterMark+0x2a>
    350c:	dc 01       	movw	r26, r24
    350e:	57 96       	adiw	r26, 0x17	; 23
    3510:	ed 91       	ld	r30, X+
    3512:	fc 91       	ld	r31, X
    3514:	58 97       	sbiw	r26, 0x18	; 24
    3516:	80 81       	ld	r24, Z
    3518:	85 3a       	cpi	r24, 0xA5	; 165
    351a:	81 f4       	brne	.+32     	; 0x353c <uxTaskGetStackHighWaterMark+0x34>
    351c:	31 96       	adiw	r30, 0x01	; 1
    351e:	80 e0       	ldi	r24, 0x00	; 0
    3520:	90 e0       	ldi	r25, 0x00	; 0
    3522:	dc 01       	movw	r26, r24
    3524:	01 96       	adiw	r24, 0x01	; 1
    3526:	a1 1d       	adc	r26, r1
    3528:	b1 1d       	adc	r27, r1
    352a:	21 91       	ld	r18, Z+
    352c:	25 3a       	cpi	r18, 0xA5	; 165
    352e:	d1 f3       	breq	.-12     	; 0x3524 <uxTaskGetStackHighWaterMark+0x1c>
    3530:	08 95       	ret
    3532:	80 91 b4 14 	lds	r24, 0x14B4
    3536:	90 91 b5 14 	lds	r25, 0x14B5
    353a:	e8 cf       	rjmp	.-48     	; 0x350c <uxTaskGetStackHighWaterMark+0x4>
    353c:	80 e0       	ldi	r24, 0x00	; 0
    353e:	08 95       	ret

00003540 <xTaskGetCurrentTaskHandle>:
    3540:	80 91 b4 14 	lds	r24, 0x14B4
    3544:	90 91 b5 14 	lds	r25, 0x14B5
    3548:	08 95       	ret

0000354a <vTaskPriorityInherit>:
    354a:	0f 93       	push	r16
    354c:	1f 93       	push	r17
    354e:	cf 93       	push	r28
    3550:	df 93       	push	r29
    3552:	ec 01       	movw	r28, r24
    3554:	00 97       	sbiw	r24, 0x00	; 0
    3556:	71 f1       	breq	.+92     	; 0x35b4 <vTaskPriorityInherit+0x6a>
    3558:	2e 89       	ldd	r18, Y+22	; 0x16
    355a:	e0 91 b4 14 	lds	r30, 0x14B4
    355e:	f0 91 b5 14 	lds	r31, 0x14B5
    3562:	86 89       	ldd	r24, Z+22	; 0x16
    3564:	28 17       	cp	r18, r24
    3566:	30 f5       	brcc	.+76     	; 0x35b4 <vTaskPriorityInherit+0x6a>
    3568:	8c 85       	ldd	r24, Y+12	; 0x0c
    356a:	9d 85       	ldd	r25, Y+13	; 0x0d
    356c:	97 fd       	sbrc	r25, 7
    356e:	0b c0       	rjmp	.+22     	; 0x3586 <vTaskPriorityInherit+0x3c>
    3570:	e0 91 b4 14 	lds	r30, 0x14B4
    3574:	f0 91 b5 14 	lds	r31, 0x14B5
    3578:	36 89       	ldd	r19, Z+22	; 0x16
    357a:	84 e0       	ldi	r24, 0x04	; 4
    357c:	90 e0       	ldi	r25, 0x00	; 0
    357e:	83 1b       	sub	r24, r19
    3580:	91 09       	sbc	r25, r1
    3582:	9d 87       	std	Y+13, r25	; 0x0d
    3584:	8c 87       	std	Y+12, r24	; 0x0c
    3586:	30 e0       	ldi	r19, 0x00	; 0
    3588:	c9 01       	movw	r24, r18
    358a:	88 0f       	add	r24, r24
    358c:	99 1f       	adc	r25, r25
    358e:	88 0f       	add	r24, r24
    3590:	99 1f       	adc	r25, r25
    3592:	88 0f       	add	r24, r24
    3594:	99 1f       	adc	r25, r25
    3596:	82 0f       	add	r24, r18
    3598:	93 1f       	adc	r25, r19
    359a:	80 57       	subi	r24, 0x70	; 112
    359c:	9b 4e       	sbci	r25, 0xEB	; 235
    359e:	2a 85       	ldd	r18, Y+10	; 0x0a
    35a0:	3b 85       	ldd	r19, Y+11	; 0x0b
    35a2:	28 17       	cp	r18, r24
    35a4:	39 07       	cpc	r19, r25
    35a6:	59 f0       	breq	.+22     	; 0x35be <vTaskPriorityInherit+0x74>
    35a8:	e0 91 b4 14 	lds	r30, 0x14B4
    35ac:	f0 91 b5 14 	lds	r31, 0x14B5
    35b0:	86 89       	ldd	r24, Z+22	; 0x16
    35b2:	8e 8b       	std	Y+22, r24	; 0x16
    35b4:	df 91       	pop	r29
    35b6:	cf 91       	pop	r28
    35b8:	1f 91       	pop	r17
    35ba:	0f 91       	pop	r16
    35bc:	08 95       	ret
    35be:	8e 01       	movw	r16, r28
    35c0:	0e 5f       	subi	r16, 0xFE	; 254
    35c2:	1f 4f       	sbci	r17, 0xFF	; 255
    35c4:	c8 01       	movw	r24, r16
    35c6:	0e 94 38 27 	call	0x4e70	; 0x4e70 <uxListRemove>
    35ca:	e0 91 b4 14 	lds	r30, 0x14B4
    35ce:	f0 91 b5 14 	lds	r31, 0x14B5
    35d2:	26 89       	ldd	r18, Z+22	; 0x16
    35d4:	2e 8b       	std	Y+22, r18	; 0x16
    35d6:	80 91 5a 14 	lds	r24, 0x145A
    35da:	82 17       	cp	r24, r18
    35dc:	10 f4       	brcc	.+4      	; 0x35e2 <vTaskPriorityInherit+0x98>
    35de:	20 93 5a 14 	sts	0x145A, r18
    35e2:	30 e0       	ldi	r19, 0x00	; 0
    35e4:	c9 01       	movw	r24, r18
    35e6:	88 0f       	add	r24, r24
    35e8:	99 1f       	adc	r25, r25
    35ea:	88 0f       	add	r24, r24
    35ec:	99 1f       	adc	r25, r25
    35ee:	88 0f       	add	r24, r24
    35f0:	99 1f       	adc	r25, r25
    35f2:	82 0f       	add	r24, r18
    35f4:	93 1f       	adc	r25, r19
    35f6:	b8 01       	movw	r22, r16
    35f8:	80 57       	subi	r24, 0x70	; 112
    35fa:	9b 4e       	sbci	r25, 0xEB	; 235
    35fc:	0e 94 e6 26 	call	0x4dcc	; 0x4dcc <vListInsertEnd>
    3600:	d9 cf       	rjmp	.-78     	; 0x35b4 <vTaskPriorityInherit+0x6a>

00003602 <vTaskPriorityDisinherit>:
    3602:	0f 93       	push	r16
    3604:	1f 93       	push	r17
    3606:	cf 93       	push	r28
    3608:	df 93       	push	r29
    360a:	ec 01       	movw	r28, r24
    360c:	00 97       	sbiw	r24, 0x00	; 0
    360e:	51 f1       	breq	.+84     	; 0x3664 <vTaskPriorityDisinherit+0x62>
    3610:	9e 89       	ldd	r25, Y+22	; 0x16
    3612:	8b a1       	ldd	r24, Y+35	; 0x23
    3614:	98 17       	cp	r25, r24
    3616:	31 f1       	breq	.+76     	; 0x3664 <vTaskPriorityDisinherit+0x62>
    3618:	8e 01       	movw	r16, r28
    361a:	0e 5f       	subi	r16, 0xFE	; 254
    361c:	1f 4f       	sbci	r17, 0xFF	; 255
    361e:	c8 01       	movw	r24, r16
    3620:	0e 94 38 27 	call	0x4e70	; 0x4e70 <uxListRemove>
    3624:	4b a1       	ldd	r20, Y+35	; 0x23
    3626:	4e 8b       	std	Y+22, r20	; 0x16
    3628:	8c 85       	ldd	r24, Y+12	; 0x0c
    362a:	9d 85       	ldd	r25, Y+13	; 0x0d
    362c:	24 2f       	mov	r18, r20
    362e:	30 e0       	ldi	r19, 0x00	; 0
    3630:	97 fd       	sbrc	r25, 7
    3632:	06 c0       	rjmp	.+12     	; 0x3640 <vTaskPriorityDisinherit+0x3e>
    3634:	84 e0       	ldi	r24, 0x04	; 4
    3636:	90 e0       	ldi	r25, 0x00	; 0
    3638:	82 1b       	sub	r24, r18
    363a:	93 0b       	sbc	r25, r19
    363c:	9d 87       	std	Y+13, r25	; 0x0d
    363e:	8c 87       	std	Y+12, r24	; 0x0c
    3640:	80 91 5a 14 	lds	r24, 0x145A
    3644:	84 17       	cp	r24, r20
    3646:	98 f0       	brcs	.+38     	; 0x366e <vTaskPriorityDisinherit+0x6c>
    3648:	c9 01       	movw	r24, r18
    364a:	88 0f       	add	r24, r24
    364c:	99 1f       	adc	r25, r25
    364e:	88 0f       	add	r24, r24
    3650:	99 1f       	adc	r25, r25
    3652:	88 0f       	add	r24, r24
    3654:	99 1f       	adc	r25, r25
    3656:	82 0f       	add	r24, r18
    3658:	93 1f       	adc	r25, r19
    365a:	b8 01       	movw	r22, r16
    365c:	80 57       	subi	r24, 0x70	; 112
    365e:	9b 4e       	sbci	r25, 0xEB	; 235
    3660:	0e 94 e6 26 	call	0x4dcc	; 0x4dcc <vListInsertEnd>
    3664:	df 91       	pop	r29
    3666:	cf 91       	pop	r28
    3668:	1f 91       	pop	r17
    366a:	0f 91       	pop	r16
    366c:	08 95       	ret
    366e:	40 93 5a 14 	sts	0x145A, r20
    3672:	ea cf       	rjmp	.-44     	; 0x3648 <vTaskPriorityDisinherit+0x46>

00003674 <vTaskList>:
    3674:	a4 e0       	ldi	r26, 0x04	; 4
    3676:	b0 e0       	ldi	r27, 0x00	; 0
    3678:	e0 e4       	ldi	r30, 0x40	; 64
    367a:	fb e1       	ldi	r31, 0x1B	; 27
    367c:	0c 94 92 27 	jmp	0x4f24	; 0x4f24 <__prologue_saves__>
    3680:	8c 01       	movw	r16, r24
    3682:	dc 01       	movw	r26, r24
    3684:	1c 92       	st	X, r1
    3686:	80 91 5d 14 	lds	r24, 0x145D
    368a:	8a 83       	std	Y+2, r24	; 0x02
    368c:	80 91 5d 14 	lds	r24, 0x145D
    3690:	bf e0       	ldi	r27, 0x0F	; 15
    3692:	8b 9f       	mul	r24, r27
    3694:	c0 01       	movw	r24, r0
    3696:	11 24       	eor	r1, r1
    3698:	0e 94 a4 0b 	call	0x1748	; 0x1748 <pvPortMalloc>
    369c:	7c 01       	movw	r14, r24
    369e:	00 97       	sbiw	r24, 0x00	; 0
    36a0:	09 f4       	brne	.+2      	; 0x36a4 <vTaskList+0x30>
    36a2:	9b c0       	rjmp	.+310    	; 0x37da <vTaskList+0x166>
    36a4:	9a 81       	ldd	r25, Y+2	; 0x02
    36a6:	80 91 54 14 	lds	r24, 0x1454
    36aa:	8f 5f       	subi	r24, 0xFF	; 255
    36ac:	80 93 54 14 	sts	0x1454, r24
    36b0:	80 91 5d 14 	lds	r24, 0x145D
    36b4:	98 17       	cp	r25, r24
    36b6:	08 f4       	brcc	.+2      	; 0x36ba <vTaskList+0x46>
    36b8:	94 c0       	rjmp	.+296    	; 0x37e2 <vTaskList+0x16e>
    36ba:	54 e0       	ldi	r21, 0x04	; 4
    36bc:	85 2e       	mov	r8, r21
    36be:	31 2c       	mov	r3, r1
    36c0:	aa 24       	eor	r10, r10
    36c2:	a3 94       	inc	r10
    36c4:	b1 2c       	mov	r11, r1
    36c6:	8a 94       	dec	r8
    36c8:	28 2d       	mov	r18, r8
    36ca:	30 e0       	ldi	r19, 0x00	; 0
    36cc:	c9 01       	movw	r24, r18
    36ce:	88 0f       	add	r24, r24
    36d0:	99 1f       	adc	r25, r25
    36d2:	88 0f       	add	r24, r24
    36d4:	99 1f       	adc	r25, r25
    36d6:	88 0f       	add	r24, r24
    36d8:	99 1f       	adc	r25, r25
    36da:	82 0f       	add	r24, r18
    36dc:	93 1f       	adc	r25, r19
    36de:	80 57       	subi	r24, 0x70	; 112
    36e0:	9b 4e       	sbci	r25, 0xEB	; 235
    36e2:	fc 01       	movw	r30, r24
    36e4:	20 81       	ld	r18, Z
    36e6:	22 23       	and	r18, r18
    36e8:	09 f4       	brne	.+2      	; 0x36ec <vTaskList+0x78>
    36ea:	a9 c1       	rjmp	.+850    	; 0x3a3e <vTaskList+0x3ca>
    36ec:	01 80       	ldd	r0, Z+1	; 0x01
    36ee:	f2 81       	ldd	r31, Z+2	; 0x02
    36f0:	e0 2d       	mov	r30, r0
    36f2:	02 80       	ldd	r0, Z+2	; 0x02
    36f4:	f3 81       	ldd	r31, Z+3	; 0x03
    36f6:	e0 2d       	mov	r30, r0
    36f8:	dc 01       	movw	r26, r24
    36fa:	12 96       	adiw	r26, 0x02	; 2
    36fc:	fc 93       	st	X, r31
    36fe:	ee 93       	st	-X, r30
    3700:	11 97       	sbiw	r26, 0x01	; 1
    3702:	ac 01       	movw	r20, r24
    3704:	4d 5f       	subi	r20, 0xFD	; 253
    3706:	5f 4f       	sbci	r21, 0xFF	; 255
    3708:	e4 17       	cp	r30, r20
    370a:	f5 07       	cpc	r31, r21
    370c:	09 f4       	brne	.+2      	; 0x3710 <vTaskList+0x9c>
    370e:	76 c4       	rjmp	.+2284   	; 0x3ffc <vTaskList+0x988>
    3710:	c6 80       	ldd	r12, Z+6	; 0x06
    3712:	d7 80       	ldd	r13, Z+7	; 0x07
    3714:	97 01       	movw	r18, r14
    3716:	6f e0       	ldi	r22, 0x0F	; 15
    3718:	36 9e       	mul	r3, r22
    371a:	20 0d       	add	r18, r0
    371c:	31 1d       	adc	r19, r1
    371e:	11 24       	eor	r1, r1
    3720:	3c 83       	std	Y+4, r19	; 0x04
    3722:	2b 83       	std	Y+3, r18	; 0x03
    3724:	91 2c       	mov	r9, r1
    3726:	22 81       	ldd	r18, Z+2	; 0x02
    3728:	33 81       	ldd	r19, Z+3	; 0x03
    372a:	dc 01       	movw	r26, r24
    372c:	12 96       	adiw	r26, 0x02	; 2
    372e:	3c 93       	st	X, r19
    3730:	2e 93       	st	-X, r18
    3732:	11 97       	sbiw	r26, 0x01	; 1
    3734:	42 17       	cp	r20, r18
    3736:	53 07       	cpc	r21, r19
    3738:	09 f4       	brne	.+2      	; 0x373c <vTaskList+0xc8>
    373a:	11 c2       	rjmp	.+1058   	; 0x3b5e <vTaskList+0x4ea>
    373c:	f9 01       	movw	r30, r18
    373e:	a6 81       	ldd	r26, Z+6	; 0x06
    3740:	b7 81       	ldd	r27, Z+7	; 0x07
    3742:	2b 81       	ldd	r18, Y+3	; 0x03
    3744:	3c 81       	ldd	r19, Y+4	; 0x04
    3746:	ef e0       	ldi	r30, 0x0F	; 15
    3748:	9e 9e       	mul	r9, r30
    374a:	20 0d       	add	r18, r0
    374c:	31 1d       	adc	r19, r1
    374e:	11 24       	eor	r1, r1
    3750:	f9 01       	movw	r30, r18
    3752:	b1 83       	std	Z+1, r27	; 0x01
    3754:	a0 83       	st	Z, r26
    3756:	bd 01       	movw	r22, r26
    3758:	67 5e       	subi	r22, 0xE7	; 231
    375a:	7f 4f       	sbci	r23, 0xFF	; 255
    375c:	73 83       	std	Z+3, r23	; 0x03
    375e:	62 83       	std	Z+2, r22	; 0x02
    3760:	91 96       	adiw	r26, 0x21	; 33
    3762:	6c 91       	ld	r22, X
    3764:	91 97       	sbiw	r26, 0x21	; 33
    3766:	64 83       	std	Z+4, r22	; 0x04
    3768:	b6 82       	std	Z+6, r11	; 0x06
    376a:	a5 82       	std	Z+5, r10	; 0x05
    376c:	56 96       	adiw	r26, 0x16	; 22
    376e:	6c 91       	ld	r22, X
    3770:	56 97       	sbiw	r26, 0x16	; 22
    3772:	67 83       	std	Z+7, r22	; 0x07
    3774:	93 96       	adiw	r26, 0x23	; 35
    3776:	6c 91       	ld	r22, X
    3778:	93 97       	sbiw	r26, 0x23	; 35
    377a:	60 87       	std	Z+8, r22	; 0x08
    377c:	94 96       	adiw	r26, 0x24	; 36
    377e:	4d 90       	ld	r4, X+
    3780:	5d 90       	ld	r5, X+
    3782:	6d 90       	ld	r6, X+
    3784:	7c 90       	ld	r7, X
    3786:	97 97       	sbiw	r26, 0x27	; 39
    3788:	41 86       	std	Z+9, r4	; 0x09
    378a:	52 86       	std	Z+10, r5	; 0x0a
    378c:	63 86       	std	Z+11, r6	; 0x0b
    378e:	74 86       	std	Z+12, r7	; 0x0c
    3790:	57 96       	adiw	r26, 0x17	; 23
    3792:	ed 91       	ld	r30, X+
    3794:	fc 91       	ld	r31, X
    3796:	58 97       	sbiw	r26, 0x18	; 24
    3798:	70 80       	ld	r7, Z
    379a:	65 ea       	ldi	r22, 0xA5	; 165
    379c:	76 12       	cpse	r7, r22
    379e:	ed c1       	rjmp	.+986    	; 0x3b7a <vTaskList+0x506>
    37a0:	31 96       	adiw	r30, 0x01	; 1
    37a2:	41 2c       	mov	r4, r1
    37a4:	51 2c       	mov	r5, r1
    37a6:	32 01       	movw	r6, r4
    37a8:	6f ef       	ldi	r22, 0xFF	; 255
    37aa:	46 1a       	sub	r4, r22
    37ac:	56 0a       	sbc	r5, r22
    37ae:	66 0a       	sbc	r6, r22
    37b0:	76 0a       	sbc	r7, r22
    37b2:	61 91       	ld	r22, Z+
    37b4:	65 3a       	cpi	r22, 0xA5	; 165
    37b6:	c1 f3       	breq	.-16     	; 0x37a8 <vTaskList+0x134>
    37b8:	f9 01       	movw	r30, r18
    37ba:	56 86       	std	Z+14, r5	; 0x0e
    37bc:	45 86       	std	Z+13, r4	; 0x0d
    37be:	93 94       	inc	r9
    37c0:	ca 16       	cp	r12, r26
    37c2:	db 06       	cpc	r13, r27
    37c4:	09 f4       	brne	.+2      	; 0x37c8 <vTaskList+0x154>
    37c6:	3c c1       	rjmp	.+632    	; 0x3a40 <vTaskList+0x3cc>
    37c8:	dc 01       	movw	r26, r24
    37ca:	11 96       	adiw	r26, 0x01	; 1
    37cc:	ed 91       	ld	r30, X+
    37ce:	fc 91       	ld	r31, X
    37d0:	12 97       	sbiw	r26, 0x02	; 2
    37d2:	a9 cf       	rjmp	.-174    	; 0x3726 <vTaskList+0xb2>
    37d4:	c7 01       	movw	r24, r14
    37d6:	0e 94 aa 0c 	call	0x1954	; 0x1954 <vPortFree>
    37da:	24 96       	adiw	r28, 0x04	; 4
    37dc:	e2 e1       	ldi	r30, 0x12	; 18
    37de:	0c 94 ae 27 	jmp	0x4f5c	; 0x4f5c <__epilogue_restores__>
    37e2:	b1 2c       	mov	r11, r1
    37e4:	0f b6       	in	r0, 0x3f	; 63
    37e6:	f8 94       	cli
    37e8:	0f 92       	push	r0
    37ea:	80 91 54 14 	lds	r24, 0x1454
    37ee:	81 50       	subi	r24, 0x01	; 1
    37f0:	80 93 54 14 	sts	0x1454, r24
    37f4:	80 91 54 14 	lds	r24, 0x1454
    37f8:	81 11       	cpse	r24, r1
    37fa:	b7 c0       	rjmp	.+366    	; 0x396a <vTaskList+0x2f6>
    37fc:	80 91 5d 14 	lds	r24, 0x145D
    3800:	88 23       	and	r24, r24
    3802:	09 f4       	brne	.+2      	; 0x3806 <vTaskList+0x192>
    3804:	b2 c0       	rjmp	.+356    	; 0x396a <vTaskList+0x2f6>
    3806:	aa 24       	eor	r10, r10
    3808:	a3 94       	inc	r10
    380a:	34 c0       	rjmp	.+104    	; 0x3874 <vTaskList+0x200>
    380c:	e0 91 76 14 	lds	r30, 0x1476
    3810:	f0 91 77 14 	lds	r31, 0x1477
    3814:	c6 80       	ldd	r12, Z+6	; 0x06
    3816:	d7 80       	ldd	r13, Z+7	; 0x07
    3818:	c6 01       	movw	r24, r12
    381a:	0c 96       	adiw	r24, 0x0c	; 12
    381c:	0e 94 38 27 	call	0x4e70	; 0x4e70 <uxListRemove>
    3820:	46 01       	movw	r8, r12
    3822:	f2 e0       	ldi	r31, 0x02	; 2
    3824:	8f 0e       	add	r8, r31
    3826:	91 1c       	adc	r9, r1
    3828:	c4 01       	movw	r24, r8
    382a:	0e 94 38 27 	call	0x4e70	; 0x4e70 <uxListRemove>
    382e:	d6 01       	movw	r26, r12
    3830:	56 96       	adiw	r26, 0x16	; 22
    3832:	2c 91       	ld	r18, X
    3834:	80 91 5a 14 	lds	r24, 0x145A
    3838:	82 17       	cp	r24, r18
    383a:	10 f4       	brcc	.+4      	; 0x3840 <vTaskList+0x1cc>
    383c:	20 93 5a 14 	sts	0x145A, r18
    3840:	30 e0       	ldi	r19, 0x00	; 0
    3842:	c9 01       	movw	r24, r18
    3844:	88 0f       	add	r24, r24
    3846:	99 1f       	adc	r25, r25
    3848:	88 0f       	add	r24, r24
    384a:	99 1f       	adc	r25, r25
    384c:	88 0f       	add	r24, r24
    384e:	99 1f       	adc	r25, r25
    3850:	82 0f       	add	r24, r18
    3852:	93 1f       	adc	r25, r19
    3854:	b4 01       	movw	r22, r8
    3856:	80 57       	subi	r24, 0x70	; 112
    3858:	9b 4e       	sbci	r25, 0xEB	; 235
    385a:	0e 94 e6 26 	call	0x4dcc	; 0x4dcc <vListInsertEnd>
    385e:	e0 91 b4 14 	lds	r30, 0x14B4
    3862:	f0 91 b5 14 	lds	r31, 0x14B5
    3866:	d6 01       	movw	r26, r12
    3868:	56 96       	adiw	r26, 0x16	; 22
    386a:	9c 91       	ld	r25, X
    386c:	86 89       	ldd	r24, Z+22	; 0x16
    386e:	98 17       	cp	r25, r24
    3870:	08 f0       	brcs	.+2      	; 0x3874 <vTaskList+0x200>
    3872:	44 c3       	rjmp	.+1672   	; 0x3efc <vTaskList+0x888>
    3874:	80 91 71 14 	lds	r24, 0x1471
    3878:	81 11       	cpse	r24, r1
    387a:	c8 cf       	rjmp	.-112    	; 0x380c <vTaskList+0x198>
    387c:	80 91 58 14 	lds	r24, 0x1458
    3880:	88 23       	and	r24, r24
    3882:	09 f4       	brne	.+2      	; 0x3886 <vTaskList+0x212>
    3884:	6d c0       	rjmp	.+218    	; 0x3960 <vTaskList+0x2ec>
    3886:	80 91 58 14 	lds	r24, 0x1458
    388a:	88 23       	and	r24, r24
    388c:	09 f4       	brne	.+2      	; 0x3890 <vTaskList+0x21c>
    388e:	68 c0       	rjmp	.+208    	; 0x3960 <vTaskList+0x2ec>
    3890:	33 24       	eor	r3, r3
    3892:	33 94       	inc	r3
    3894:	66 24       	eor	r6, r6
    3896:	6a 94       	dec	r6
    3898:	76 2c       	mov	r7, r6
    389a:	80 91 54 14 	lds	r24, 0x1454
    389e:	81 11       	cpse	r24, r1
    38a0:	8a c3       	rjmp	.+1812   	; 0x3fb6 <vTaskList+0x942>
    38a2:	80 91 5b 14 	lds	r24, 0x145B
    38a6:	90 91 5c 14 	lds	r25, 0x145C
    38aa:	01 96       	adiw	r24, 0x01	; 1
    38ac:	90 93 5c 14 	sts	0x145C, r25
    38b0:	80 93 5b 14 	sts	0x145B, r24
    38b4:	80 90 5b 14 	lds	r8, 0x145B
    38b8:	90 90 5c 14 	lds	r9, 0x145C
    38bc:	81 14       	cp	r8, r1
    38be:	91 04       	cpc	r9, r1
    38c0:	01 f5       	brne	.+64     	; 0x3902 <vTaskList+0x28e>
    38c2:	80 91 7c 14 	lds	r24, 0x147C
    38c6:	90 91 7d 14 	lds	r25, 0x147D
    38ca:	20 91 7a 14 	lds	r18, 0x147A
    38ce:	30 91 7b 14 	lds	r19, 0x147B
    38d2:	30 93 7d 14 	sts	0x147D, r19
    38d6:	20 93 7c 14 	sts	0x147C, r18
    38da:	90 93 7b 14 	sts	0x147B, r25
    38de:	80 93 7a 14 	sts	0x147A, r24
    38e2:	80 91 56 14 	lds	r24, 0x1456
    38e6:	8f 5f       	subi	r24, 0xFF	; 255
    38e8:	80 93 56 14 	sts	0x1456, r24
    38ec:	e0 91 7c 14 	lds	r30, 0x147C
    38f0:	f0 91 7d 14 	lds	r31, 0x147D
    38f4:	80 81       	ld	r24, Z
    38f6:	81 11       	cpse	r24, r1
    38f8:	70 c3       	rjmp	.+1760   	; 0x3fda <vTaskList+0x966>
    38fa:	70 92 05 02 	sts	0x0205, r7
    38fe:	60 92 04 02 	sts	0x0204, r6
    3902:	80 91 04 02 	lds	r24, 0x0204
    3906:	90 91 05 02 	lds	r25, 0x0205
    390a:	a1 2c       	mov	r10, r1
    390c:	88 16       	cp	r8, r24
    390e:	99 06       	cpc	r9, r25
    3910:	08 f0       	brcs	.+2      	; 0x3914 <vTaskList+0x2a0>
    3912:	f7 c2       	rjmp	.+1518   	; 0x3f02 <vTaskList+0x88e>
    3914:	e0 91 b4 14 	lds	r30, 0x14B4
    3918:	f0 91 b5 14 	lds	r31, 0x14B5
    391c:	86 89       	ldd	r24, Z+22	; 0x16
    391e:	90 e0       	ldi	r25, 0x00	; 0
    3920:	fc 01       	movw	r30, r24
    3922:	ee 0f       	add	r30, r30
    3924:	ff 1f       	adc	r31, r31
    3926:	ee 0f       	add	r30, r30
    3928:	ff 1f       	adc	r31, r31
    392a:	ee 0f       	add	r30, r30
    392c:	ff 1f       	adc	r31, r31
    392e:	e8 0f       	add	r30, r24
    3930:	f9 1f       	adc	r31, r25
    3932:	e0 57       	subi	r30, 0x70	; 112
    3934:	fb 4e       	sbci	r31, 0xEB	; 235
    3936:	80 81       	ld	r24, Z
    3938:	82 30       	cpi	r24, 0x02	; 2
    393a:	18 f0       	brcs	.+6      	; 0x3942 <vTaskList+0x2ce>
    393c:	80 91 57 14 	lds	r24, 0x1457
    3940:	44 c3       	rjmp	.+1672   	; 0x3fca <vTaskList+0x956>
    3942:	80 91 57 14 	lds	r24, 0x1457
    3946:	81 11       	cpse	r24, r1
    3948:	40 c3       	rjmp	.+1664   	; 0x3fca <vTaskList+0x956>
    394a:	a1 10       	cpse	r10, r1
    394c:	3e c3       	rjmp	.+1660   	; 0x3fca <vTaskList+0x956>
    394e:	80 91 58 14 	lds	r24, 0x1458
    3952:	81 50       	subi	r24, 0x01	; 1
    3954:	80 93 58 14 	sts	0x1458, r24
    3958:	80 91 58 14 	lds	r24, 0x1458
    395c:	81 11       	cpse	r24, r1
    395e:	9d cf       	rjmp	.-198    	; 0x389a <vTaskList+0x226>
    3960:	80 91 57 14 	lds	r24, 0x1457
    3964:	81 30       	cpi	r24, 0x01	; 1
    3966:	09 f4       	brne	.+2      	; 0x396a <vTaskList+0x2f6>
    3968:	51 c3       	rjmp	.+1698   	; 0x400c <vTaskList+0x998>
    396a:	0f 90       	pop	r0
    396c:	0f be       	out	0x3f, r0	; 63
    396e:	ba 82       	std	Y+2, r11	; 0x02
    3970:	19 82       	std	Y+1, r1	; 0x01
    3972:	99 81       	ldd	r25, Y+1	; 0x01
    3974:	8a 81       	ldd	r24, Y+2	; 0x02
    3976:	98 17       	cp	r25, r24
    3978:	08 f0       	brcs	.+2      	; 0x397c <vTaskList+0x308>
    397a:	2c cf       	rjmp	.-424    	; 0x37d4 <vTaskList+0x160>
    397c:	f0 e1       	ldi	r31, 0x10	; 16
    397e:	cf 2e       	mov	r12, r31
    3980:	f2 e0       	ldi	r31, 0x02	; 2
    3982:	df 2e       	mov	r13, r31
    3984:	4b c0       	rjmp	.+150    	; 0x3a1c <vTaskList+0x3a8>
    3986:	fc 01       	movw	r30, r24
    3988:	e0 5c       	subi	r30, 0xC0	; 192
    398a:	fd 4f       	sbci	r31, 0xFD	; 253
    398c:	80 81       	ld	r24, Z
    398e:	90 e0       	ldi	r25, 0x00	; 0
    3990:	59 81       	ldd	r21, Y+1	; 0x01
    3992:	49 81       	ldd	r20, Y+1	; 0x01
    3994:	39 81       	ldd	r19, Y+1	; 0x01
    3996:	29 81       	ldd	r18, Y+1	; 0x01
    3998:	f7 01       	movw	r30, r14
    399a:	6f e0       	ldi	r22, 0x0F	; 15
    399c:	56 9f       	mul	r21, r22
    399e:	e0 0d       	add	r30, r0
    39a0:	f1 1d       	adc	r31, r1
    39a2:	11 24       	eor	r1, r1
    39a4:	54 81       	ldd	r21, Z+4	; 0x04
    39a6:	1f 92       	push	r1
    39a8:	5f 93       	push	r21
    39aa:	f7 01       	movw	r30, r14
    39ac:	af e0       	ldi	r26, 0x0F	; 15
    39ae:	4a 9f       	mul	r20, r26
    39b0:	e0 0d       	add	r30, r0
    39b2:	f1 1d       	adc	r31, r1
    39b4:	11 24       	eor	r1, r1
    39b6:	46 85       	ldd	r20, Z+14	; 0x0e
    39b8:	4f 93       	push	r20
    39ba:	45 85       	ldd	r20, Z+13	; 0x0d
    39bc:	4f 93       	push	r20
    39be:	f7 01       	movw	r30, r14
    39c0:	bf e0       	ldi	r27, 0x0F	; 15
    39c2:	3b 9f       	mul	r19, r27
    39c4:	e0 0d       	add	r30, r0
    39c6:	f1 1d       	adc	r31, r1
    39c8:	11 24       	eor	r1, r1
    39ca:	37 81       	ldd	r19, Z+7	; 0x07
    39cc:	1f 92       	push	r1
    39ce:	3f 93       	push	r19
    39d0:	9f 93       	push	r25
    39d2:	8f 93       	push	r24
    39d4:	f7 01       	movw	r30, r14
    39d6:	3f e0       	ldi	r19, 0x0F	; 15
    39d8:	23 9f       	mul	r18, r19
    39da:	e0 0d       	add	r30, r0
    39dc:	f1 1d       	adc	r31, r1
    39de:	11 24       	eor	r1, r1
    39e0:	83 81       	ldd	r24, Z+3	; 0x03
    39e2:	8f 93       	push	r24
    39e4:	82 81       	ldd	r24, Z+2	; 0x02
    39e6:	8f 93       	push	r24
    39e8:	df 92       	push	r13
    39ea:	cf 92       	push	r12
    39ec:	1f 93       	push	r17
    39ee:	0f 93       	push	r16
    39f0:	0e 94 d9 27 	call	0x4fb2	; 0x4fb2 <sprintf>
    39f4:	d8 01       	movw	r26, r16
    39f6:	0d 90       	ld	r0, X+
    39f8:	00 20       	and	r0, r0
    39fa:	e9 f7       	brne	.-6      	; 0x39f6 <vTaskList+0x382>
    39fc:	8d 01       	movw	r16, r26
    39fe:	01 50       	subi	r16, 0x01	; 1
    3a00:	11 09       	sbc	r17, r1
    3a02:	89 81       	ldd	r24, Y+1	; 0x01
    3a04:	8f 5f       	subi	r24, 0xFF	; 255
    3a06:	89 83       	std	Y+1, r24	; 0x01
    3a08:	99 81       	ldd	r25, Y+1	; 0x01
    3a0a:	8a 81       	ldd	r24, Y+2	; 0x02
    3a0c:	0f b6       	in	r0, 0x3f	; 63
    3a0e:	f8 94       	cli
    3a10:	de bf       	out	0x3e, r29	; 62
    3a12:	0f be       	out	0x3f, r0	; 63
    3a14:	cd bf       	out	0x3d, r28	; 61
    3a16:	98 17       	cp	r25, r24
    3a18:	08 f0       	brcs	.+2      	; 0x3a1c <vTaskList+0x3a8>
    3a1a:	dc ce       	rjmp	.-584    	; 0x37d4 <vTaskList+0x160>
    3a1c:	89 81       	ldd	r24, Y+1	; 0x01
    3a1e:	f7 01       	movw	r30, r14
    3a20:	bf e0       	ldi	r27, 0x0F	; 15
    3a22:	8b 9f       	mul	r24, r27
    3a24:	e0 0d       	add	r30, r0
    3a26:	f1 1d       	adc	r31, r1
    3a28:	11 24       	eor	r1, r1
    3a2a:	85 81       	ldd	r24, Z+5	; 0x05
    3a2c:	96 81       	ldd	r25, Z+6	; 0x06
    3a2e:	01 97       	sbiw	r24, 0x01	; 1
    3a30:	84 30       	cpi	r24, 0x04	; 4
    3a32:	91 05       	cpc	r25, r1
    3a34:	08 f4       	brcc	.+2      	; 0x3a38 <vTaskList+0x3c4>
    3a36:	a7 cf       	rjmp	.-178    	; 0x3986 <vTaskList+0x312>
    3a38:	80 e0       	ldi	r24, 0x00	; 0
    3a3a:	90 e0       	ldi	r25, 0x00	; 0
    3a3c:	a9 cf       	rjmp	.-174    	; 0x3990 <vTaskList+0x31c>
    3a3e:	91 2c       	mov	r9, r1
    3a40:	39 0c       	add	r3, r9
    3a42:	81 10       	cpse	r8, r1
    3a44:	40 ce       	rjmp	.-896    	; 0x36c6 <vTaskList+0x52>
    3a46:	20 91 7c 14 	lds	r18, 0x147C
    3a4a:	30 91 7d 14 	lds	r19, 0x147D
    3a4e:	f9 01       	movw	r30, r18
    3a50:	80 81       	ld	r24, Z
    3a52:	88 23       	and	r24, r24
    3a54:	09 f4       	brne	.+2      	; 0x3a58 <vTaskList+0x3e4>
    3a56:	94 c0       	rjmp	.+296    	; 0x3b80 <vTaskList+0x50c>
    3a58:	01 80       	ldd	r0, Z+1	; 0x01
    3a5a:	f2 81       	ldd	r31, Z+2	; 0x02
    3a5c:	e0 2d       	mov	r30, r0
    3a5e:	02 80       	ldd	r0, Z+2	; 0x02
    3a60:	f3 81       	ldd	r31, Z+3	; 0x03
    3a62:	e0 2d       	mov	r30, r0
    3a64:	d9 01       	movw	r26, r18
    3a66:	12 96       	adiw	r26, 0x02	; 2
    3a68:	fc 93       	st	X, r31
    3a6a:	ee 93       	st	-X, r30
    3a6c:	11 97       	sbiw	r26, 0x01	; 1
    3a6e:	a9 01       	movw	r20, r18
    3a70:	4d 5f       	subi	r20, 0xFD	; 253
    3a72:	5f 4f       	sbci	r21, 0xFF	; 255
    3a74:	e4 17       	cp	r30, r20
    3a76:	f5 07       	cpc	r31, r21
    3a78:	09 f4       	brne	.+2      	; 0x3a7c <vTaskList+0x408>
    3a7a:	cb c2       	rjmp	.+1430   	; 0x4012 <vTaskList+0x99e>
    3a7c:	c6 80       	ldd	r12, Z+6	; 0x06
    3a7e:	d7 80       	ldd	r13, Z+7	; 0x07
    3a80:	c7 01       	movw	r24, r14
    3a82:	af e0       	ldi	r26, 0x0F	; 15
    3a84:	3a 9e       	mul	r3, r26
    3a86:	80 0d       	add	r24, r0
    3a88:	91 1d       	adc	r25, r1
    3a8a:	11 24       	eor	r1, r1
    3a8c:	9c 83       	std	Y+4, r25	; 0x04
    3a8e:	8b 83       	std	Y+3, r24	; 0x03
    3a90:	91 2c       	mov	r9, r1
    3a92:	b2 e0       	ldi	r27, 0x02	; 2
    3a94:	ab 2e       	mov	r10, r27
    3a96:	b1 2c       	mov	r11, r1
    3a98:	82 81       	ldd	r24, Z+2	; 0x02
    3a9a:	93 81       	ldd	r25, Z+3	; 0x03
    3a9c:	f9 01       	movw	r30, r18
    3a9e:	92 83       	std	Z+2, r25	; 0x02
    3aa0:	81 83       	std	Z+1, r24	; 0x01
    3aa2:	48 17       	cp	r20, r24
    3aa4:	59 07       	cpc	r21, r25
    3aa6:	09 f4       	brne	.+2      	; 0x3aaa <vTaskList+0x436>
    3aa8:	53 c0       	rjmp	.+166    	; 0x3b50 <vTaskList+0x4dc>
    3aaa:	fc 01       	movw	r30, r24
    3aac:	a6 81       	ldd	r26, Z+6	; 0x06
    3aae:	b7 81       	ldd	r27, Z+7	; 0x07
    3ab0:	8b 81       	ldd	r24, Y+3	; 0x03
    3ab2:	9c 81       	ldd	r25, Y+4	; 0x04
    3ab4:	ff e0       	ldi	r31, 0x0F	; 15
    3ab6:	9f 9e       	mul	r9, r31
    3ab8:	80 0d       	add	r24, r0
    3aba:	91 1d       	adc	r25, r1
    3abc:	11 24       	eor	r1, r1
    3abe:	fc 01       	movw	r30, r24
    3ac0:	b1 83       	std	Z+1, r27	; 0x01
    3ac2:	a0 83       	st	Z, r26
    3ac4:	bd 01       	movw	r22, r26
    3ac6:	67 5e       	subi	r22, 0xE7	; 231
    3ac8:	7f 4f       	sbci	r23, 0xFF	; 255
    3aca:	73 83       	std	Z+3, r23	; 0x03
    3acc:	62 83       	std	Z+2, r22	; 0x02
    3ace:	91 96       	adiw	r26, 0x21	; 33
    3ad0:	6c 91       	ld	r22, X
    3ad2:	91 97       	sbiw	r26, 0x21	; 33
    3ad4:	64 83       	std	Z+4, r22	; 0x04
    3ad6:	b6 82       	std	Z+6, r11	; 0x06
    3ad8:	a5 82       	std	Z+5, r10	; 0x05
    3ada:	56 96       	adiw	r26, 0x16	; 22
    3adc:	6c 91       	ld	r22, X
    3ade:	56 97       	sbiw	r26, 0x16	; 22
    3ae0:	67 83       	std	Z+7, r22	; 0x07
    3ae2:	93 96       	adiw	r26, 0x23	; 35
    3ae4:	6c 91       	ld	r22, X
    3ae6:	93 97       	sbiw	r26, 0x23	; 35
    3ae8:	60 87       	std	Z+8, r22	; 0x08
    3aea:	94 96       	adiw	r26, 0x24	; 36
    3aec:	4d 90       	ld	r4, X+
    3aee:	5d 90       	ld	r5, X+
    3af0:	6d 90       	ld	r6, X+
    3af2:	7c 90       	ld	r7, X
    3af4:	97 97       	sbiw	r26, 0x27	; 39
    3af6:	41 86       	std	Z+9, r4	; 0x09
    3af8:	52 86       	std	Z+10, r5	; 0x0a
    3afa:	63 86       	std	Z+11, r6	; 0x0b
    3afc:	74 86       	std	Z+12, r7	; 0x0c
    3afe:	57 96       	adiw	r26, 0x17	; 23
    3b00:	ed 91       	ld	r30, X+
    3b02:	fc 91       	ld	r31, X
    3b04:	58 97       	sbiw	r26, 0x18	; 24
    3b06:	80 80       	ld	r8, Z
    3b08:	65 ea       	ldi	r22, 0xA5	; 165
    3b0a:	86 12       	cpse	r8, r22
    3b0c:	d6 c1       	rjmp	.+940    	; 0x3eba <vTaskList+0x846>
    3b0e:	31 96       	adiw	r30, 0x01	; 1
    3b10:	41 2c       	mov	r4, r1
    3b12:	51 2c       	mov	r5, r1
    3b14:	32 01       	movw	r6, r4
    3b16:	6f ef       	ldi	r22, 0xFF	; 255
    3b18:	46 1a       	sub	r4, r22
    3b1a:	56 0a       	sbc	r5, r22
    3b1c:	66 0a       	sbc	r6, r22
    3b1e:	76 0a       	sbc	r7, r22
    3b20:	61 91       	ld	r22, Z+
    3b22:	65 3a       	cpi	r22, 0xA5	; 165
    3b24:	c1 f3       	breq	.-16     	; 0x3b16 <vTaskList+0x4a2>
    3b26:	fc 01       	movw	r30, r24
    3b28:	56 86       	std	Z+14, r5	; 0x0e
    3b2a:	45 86       	std	Z+13, r4	; 0x0d
    3b2c:	93 94       	inc	r9
    3b2e:	ca 16       	cp	r12, r26
    3b30:	db 06       	cpc	r13, r27
    3b32:	39 f1       	breq	.+78     	; 0x3b82 <vTaskList+0x50e>
    3b34:	d9 01       	movw	r26, r18
    3b36:	11 96       	adiw	r26, 0x01	; 1
    3b38:	ed 91       	ld	r30, X+
    3b3a:	fc 91       	ld	r31, X
    3b3c:	12 97       	sbiw	r26, 0x02	; 2
    3b3e:	82 81       	ldd	r24, Z+2	; 0x02
    3b40:	93 81       	ldd	r25, Z+3	; 0x03
    3b42:	f9 01       	movw	r30, r18
    3b44:	92 83       	std	Z+2, r25	; 0x02
    3b46:	81 83       	std	Z+1, r24	; 0x01
    3b48:	48 17       	cp	r20, r24
    3b4a:	59 07       	cpc	r21, r25
    3b4c:	09 f0       	breq	.+2      	; 0x3b50 <vTaskList+0x4dc>
    3b4e:	ad cf       	rjmp	.-166    	; 0x3aaa <vTaskList+0x436>
    3b50:	95 81       	ldd	r25, Z+5	; 0x05
    3b52:	86 81       	ldd	r24, Z+6	; 0x06
    3b54:	91 83       	std	Z+1, r25	; 0x01
    3b56:	82 83       	std	Z+2, r24	; 0x02
    3b58:	e9 2f       	mov	r30, r25
    3b5a:	f8 2f       	mov	r31, r24
    3b5c:	a7 cf       	rjmp	.-178    	; 0x3aac <vTaskList+0x438>
    3b5e:	15 96       	adiw	r26, 0x05	; 5
    3b60:	3c 91       	ld	r19, X
    3b62:	15 97       	sbiw	r26, 0x05	; 5
    3b64:	16 96       	adiw	r26, 0x06	; 6
    3b66:	2c 91       	ld	r18, X
    3b68:	16 97       	sbiw	r26, 0x06	; 6
    3b6a:	11 96       	adiw	r26, 0x01	; 1
    3b6c:	3c 93       	st	X, r19
    3b6e:	11 97       	sbiw	r26, 0x01	; 1
    3b70:	12 96       	adiw	r26, 0x02	; 2
    3b72:	2c 93       	st	X, r18
    3b74:	e3 2f       	mov	r30, r19
    3b76:	f2 2f       	mov	r31, r18
    3b78:	e2 cd       	rjmp	.-1084   	; 0x373e <vTaskList+0xca>
    3b7a:	41 2c       	mov	r4, r1
    3b7c:	51 2c       	mov	r5, r1
    3b7e:	1c ce       	rjmp	.-968    	; 0x37b8 <vTaskList+0x144>
    3b80:	91 2c       	mov	r9, r1
    3b82:	39 0c       	add	r3, r9
    3b84:	20 91 7a 14 	lds	r18, 0x147A
    3b88:	30 91 7b 14 	lds	r19, 0x147B
    3b8c:	f9 01       	movw	r30, r18
    3b8e:	80 81       	ld	r24, Z
    3b90:	88 23       	and	r24, r24
    3b92:	09 f4       	brne	.+2      	; 0x3b96 <vTaskList+0x522>
    3b94:	83 c0       	rjmp	.+262    	; 0x3c9c <vTaskList+0x628>
    3b96:	01 80       	ldd	r0, Z+1	; 0x01
    3b98:	f2 81       	ldd	r31, Z+2	; 0x02
    3b9a:	e0 2d       	mov	r30, r0
    3b9c:	02 80       	ldd	r0, Z+2	; 0x02
    3b9e:	f3 81       	ldd	r31, Z+3	; 0x03
    3ba0:	e0 2d       	mov	r30, r0
    3ba2:	d9 01       	movw	r26, r18
    3ba4:	12 96       	adiw	r26, 0x02	; 2
    3ba6:	fc 93       	st	X, r31
    3ba8:	ee 93       	st	-X, r30
    3baa:	11 97       	sbiw	r26, 0x01	; 1
    3bac:	a9 01       	movw	r20, r18
    3bae:	4d 5f       	subi	r20, 0xFD	; 253
    3bb0:	5f 4f       	sbci	r21, 0xFF	; 255
    3bb2:	e4 17       	cp	r30, r20
    3bb4:	f5 07       	cpc	r31, r21
    3bb6:	09 f4       	brne	.+2      	; 0x3bba <vTaskList+0x546>
    3bb8:	32 c2       	rjmp	.+1124   	; 0x401e <vTaskList+0x9aa>
    3bba:	c6 80       	ldd	r12, Z+6	; 0x06
    3bbc:	d7 80       	ldd	r13, Z+7	; 0x07
    3bbe:	c7 01       	movw	r24, r14
    3bc0:	af e0       	ldi	r26, 0x0F	; 15
    3bc2:	3a 9e       	mul	r3, r26
    3bc4:	80 0d       	add	r24, r0
    3bc6:	91 1d       	adc	r25, r1
    3bc8:	11 24       	eor	r1, r1
    3bca:	9c 83       	std	Y+4, r25	; 0x04
    3bcc:	8b 83       	std	Y+3, r24	; 0x03
    3bce:	91 2c       	mov	r9, r1
    3bd0:	a2 e0       	ldi	r26, 0x02	; 2
    3bd2:	aa 2e       	mov	r10, r26
    3bd4:	b1 2c       	mov	r11, r1
    3bd6:	82 81       	ldd	r24, Z+2	; 0x02
    3bd8:	93 81       	ldd	r25, Z+3	; 0x03
    3bda:	f9 01       	movw	r30, r18
    3bdc:	92 83       	std	Z+2, r25	; 0x02
    3bde:	81 83       	std	Z+1, r24	; 0x01
    3be0:	48 17       	cp	r20, r24
    3be2:	59 07       	cpc	r21, r25
    3be4:	09 f4       	brne	.+2      	; 0x3be8 <vTaskList+0x574>
    3be6:	53 c0       	rjmp	.+166    	; 0x3c8e <vTaskList+0x61a>
    3be8:	fc 01       	movw	r30, r24
    3bea:	a6 81       	ldd	r26, Z+6	; 0x06
    3bec:	b7 81       	ldd	r27, Z+7	; 0x07
    3bee:	8b 81       	ldd	r24, Y+3	; 0x03
    3bf0:	9c 81       	ldd	r25, Y+4	; 0x04
    3bf2:	ff e0       	ldi	r31, 0x0F	; 15
    3bf4:	9f 9e       	mul	r9, r31
    3bf6:	80 0d       	add	r24, r0
    3bf8:	91 1d       	adc	r25, r1
    3bfa:	11 24       	eor	r1, r1
    3bfc:	fc 01       	movw	r30, r24
    3bfe:	b1 83       	std	Z+1, r27	; 0x01
    3c00:	a0 83       	st	Z, r26
    3c02:	bd 01       	movw	r22, r26
    3c04:	67 5e       	subi	r22, 0xE7	; 231
    3c06:	7f 4f       	sbci	r23, 0xFF	; 255
    3c08:	73 83       	std	Z+3, r23	; 0x03
    3c0a:	62 83       	std	Z+2, r22	; 0x02
    3c0c:	91 96       	adiw	r26, 0x21	; 33
    3c0e:	6c 91       	ld	r22, X
    3c10:	91 97       	sbiw	r26, 0x21	; 33
    3c12:	64 83       	std	Z+4, r22	; 0x04
    3c14:	b6 82       	std	Z+6, r11	; 0x06
    3c16:	a5 82       	std	Z+5, r10	; 0x05
    3c18:	56 96       	adiw	r26, 0x16	; 22
    3c1a:	6c 91       	ld	r22, X
    3c1c:	56 97       	sbiw	r26, 0x16	; 22
    3c1e:	67 83       	std	Z+7, r22	; 0x07
    3c20:	93 96       	adiw	r26, 0x23	; 35
    3c22:	6c 91       	ld	r22, X
    3c24:	93 97       	sbiw	r26, 0x23	; 35
    3c26:	60 87       	std	Z+8, r22	; 0x08
    3c28:	94 96       	adiw	r26, 0x24	; 36
    3c2a:	4d 90       	ld	r4, X+
    3c2c:	5d 90       	ld	r5, X+
    3c2e:	6d 90       	ld	r6, X+
    3c30:	7c 90       	ld	r7, X
    3c32:	97 97       	sbiw	r26, 0x27	; 39
    3c34:	41 86       	std	Z+9, r4	; 0x09
    3c36:	52 86       	std	Z+10, r5	; 0x0a
    3c38:	63 86       	std	Z+11, r6	; 0x0b
    3c3a:	74 86       	std	Z+12, r7	; 0x0c
    3c3c:	57 96       	adiw	r26, 0x17	; 23
    3c3e:	ed 91       	ld	r30, X+
    3c40:	fc 91       	ld	r31, X
    3c42:	58 97       	sbiw	r26, 0x18	; 24
    3c44:	80 80       	ld	r8, Z
    3c46:	65 ea       	ldi	r22, 0xA5	; 165
    3c48:	86 12       	cpse	r8, r22
    3c4a:	55 c1       	rjmp	.+682    	; 0x3ef6 <vTaskList+0x882>
    3c4c:	31 96       	adiw	r30, 0x01	; 1
    3c4e:	41 2c       	mov	r4, r1
    3c50:	51 2c       	mov	r5, r1
    3c52:	32 01       	movw	r6, r4
    3c54:	6f ef       	ldi	r22, 0xFF	; 255
    3c56:	46 1a       	sub	r4, r22
    3c58:	56 0a       	sbc	r5, r22
    3c5a:	66 0a       	sbc	r6, r22
    3c5c:	76 0a       	sbc	r7, r22
    3c5e:	61 91       	ld	r22, Z+
    3c60:	65 3a       	cpi	r22, 0xA5	; 165
    3c62:	c1 f3       	breq	.-16     	; 0x3c54 <vTaskList+0x5e0>
    3c64:	fc 01       	movw	r30, r24
    3c66:	56 86       	std	Z+14, r5	; 0x0e
    3c68:	45 86       	std	Z+13, r4	; 0x0d
    3c6a:	93 94       	inc	r9
    3c6c:	ca 16       	cp	r12, r26
    3c6e:	db 06       	cpc	r13, r27
    3c70:	b1 f0       	breq	.+44     	; 0x3c9e <vTaskList+0x62a>
    3c72:	d9 01       	movw	r26, r18
    3c74:	11 96       	adiw	r26, 0x01	; 1
    3c76:	ed 91       	ld	r30, X+
    3c78:	fc 91       	ld	r31, X
    3c7a:	12 97       	sbiw	r26, 0x02	; 2
    3c7c:	82 81       	ldd	r24, Z+2	; 0x02
    3c7e:	93 81       	ldd	r25, Z+3	; 0x03
    3c80:	f9 01       	movw	r30, r18
    3c82:	92 83       	std	Z+2, r25	; 0x02
    3c84:	81 83       	std	Z+1, r24	; 0x01
    3c86:	48 17       	cp	r20, r24
    3c88:	59 07       	cpc	r21, r25
    3c8a:	09 f0       	breq	.+2      	; 0x3c8e <vTaskList+0x61a>
    3c8c:	ad cf       	rjmp	.-166    	; 0x3be8 <vTaskList+0x574>
    3c8e:	95 81       	ldd	r25, Z+5	; 0x05
    3c90:	86 81       	ldd	r24, Z+6	; 0x06
    3c92:	91 83       	std	Z+1, r25	; 0x01
    3c94:	82 83       	std	Z+2, r24	; 0x02
    3c96:	e9 2f       	mov	r30, r25
    3c98:	f8 2f       	mov	r31, r24
    3c9a:	a7 cf       	rjmp	.-178    	; 0x3bea <vTaskList+0x576>
    3c9c:	91 2c       	mov	r9, r1
    3c9e:	a9 2c       	mov	r10, r9
    3ca0:	a3 0c       	add	r10, r3
    3ca2:	80 91 68 14 	lds	r24, 0x1468
    3ca6:	88 23       	and	r24, r24
    3ca8:	09 f4       	brne	.+2      	; 0x3cac <vTaskList+0x638>
    3caa:	23 c1       	rjmp	.+582    	; 0x3ef2 <vTaskList+0x87e>
    3cac:	e0 91 69 14 	lds	r30, 0x1469
    3cb0:	f0 91 6a 14 	lds	r31, 0x146A
    3cb4:	22 81       	ldd	r18, Z+2	; 0x02
    3cb6:	33 81       	ldd	r19, Z+3	; 0x03
    3cb8:	30 93 6a 14 	sts	0x146A, r19
    3cbc:	20 93 69 14 	sts	0x1469, r18
    3cc0:	90 90 6d 14 	lds	r9, 0x146D
    3cc4:	80 90 6e 14 	lds	r8, 0x146E
    3cc8:	b4 e1       	ldi	r27, 0x14	; 20
    3cca:	2b 36       	cpi	r18, 0x6B	; 107
    3ccc:	3b 07       	cpc	r19, r27
    3cce:	09 f4       	brne	.+2      	; 0x3cd2 <vTaskList+0x65e>
    3cd0:	ac c1       	rjmp	.+856    	; 0x402a <vTaskList+0x9b6>
    3cd2:	f9 01       	movw	r30, r18
    3cd4:	c6 80       	ldd	r12, Z+6	; 0x06
    3cd6:	d7 80       	ldd	r13, Z+7	; 0x07
    3cd8:	b7 01       	movw	r22, r14
    3cda:	ff e0       	ldi	r31, 0x0F	; 15
    3cdc:	af 9e       	mul	r10, r31
    3cde:	60 0d       	add	r22, r0
    3ce0:	71 1d       	adc	r23, r1
    3ce2:	11 24       	eor	r1, r1
    3ce4:	b1 2c       	mov	r11, r1
    3ce6:	e4 e0       	ldi	r30, 0x04	; 4
    3ce8:	2e 2e       	mov	r2, r30
    3cea:	31 2c       	mov	r3, r1
    3cec:	d9 01       	movw	r26, r18
    3cee:	12 96       	adiw	r26, 0x02	; 2
    3cf0:	2d 91       	ld	r18, X+
    3cf2:	3c 91       	ld	r19, X
    3cf4:	13 97       	sbiw	r26, 0x03	; 3
    3cf6:	30 93 6a 14 	sts	0x146A, r19
    3cfa:	20 93 69 14 	sts	0x1469, r18
    3cfe:	b4 e1       	ldi	r27, 0x14	; 20
    3d00:	2b 36       	cpi	r18, 0x6B	; 107
    3d02:	3b 07       	cpc	r19, r27
    3d04:	09 f4       	brne	.+2      	; 0x3d08 <vTaskList+0x694>
    3d06:	d2 c0       	rjmp	.+420    	; 0x3eac <vTaskList+0x838>
    3d08:	f9 01       	movw	r30, r18
    3d0a:	a6 81       	ldd	r26, Z+6	; 0x06
    3d0c:	b7 81       	ldd	r27, Z+7	; 0x07
    3d0e:	cb 01       	movw	r24, r22
    3d10:	ff e0       	ldi	r31, 0x0F	; 15
    3d12:	bf 9e       	mul	r11, r31
    3d14:	80 0d       	add	r24, r0
    3d16:	91 1d       	adc	r25, r1
    3d18:	11 24       	eor	r1, r1
    3d1a:	fc 01       	movw	r30, r24
    3d1c:	b1 83       	std	Z+1, r27	; 0x01
    3d1e:	a0 83       	st	Z, r26
    3d20:	ad 01       	movw	r20, r26
    3d22:	47 5e       	subi	r20, 0xE7	; 231
    3d24:	5f 4f       	sbci	r21, 0xFF	; 255
    3d26:	53 83       	std	Z+3, r21	; 0x03
    3d28:	42 83       	std	Z+2, r20	; 0x02
    3d2a:	91 96       	adiw	r26, 0x21	; 33
    3d2c:	4c 91       	ld	r20, X
    3d2e:	91 97       	sbiw	r26, 0x21	; 33
    3d30:	44 83       	std	Z+4, r20	; 0x04
    3d32:	36 82       	std	Z+6, r3	; 0x06
    3d34:	25 82       	std	Z+5, r2	; 0x05
    3d36:	56 96       	adiw	r26, 0x16	; 22
    3d38:	4c 91       	ld	r20, X
    3d3a:	56 97       	sbiw	r26, 0x16	; 22
    3d3c:	47 83       	std	Z+7, r20	; 0x07
    3d3e:	93 96       	adiw	r26, 0x23	; 35
    3d40:	4c 91       	ld	r20, X
    3d42:	93 97       	sbiw	r26, 0x23	; 35
    3d44:	40 87       	std	Z+8, r20	; 0x08
    3d46:	94 96       	adiw	r26, 0x24	; 36
    3d48:	4d 90       	ld	r4, X+
    3d4a:	5d 90       	ld	r5, X+
    3d4c:	6d 90       	ld	r6, X+
    3d4e:	7c 90       	ld	r7, X
    3d50:	97 97       	sbiw	r26, 0x27	; 39
    3d52:	41 86       	std	Z+9, r4	; 0x09
    3d54:	52 86       	std	Z+10, r5	; 0x0a
    3d56:	63 86       	std	Z+11, r6	; 0x0b
    3d58:	74 86       	std	Z+12, r7	; 0x0c
    3d5a:	57 96       	adiw	r26, 0x17	; 23
    3d5c:	ed 91       	ld	r30, X+
    3d5e:	fc 91       	ld	r31, X
    3d60:	58 97       	sbiw	r26, 0x18	; 24
    3d62:	70 80       	ld	r7, Z
    3d64:	45 ea       	ldi	r20, 0xA5	; 165
    3d66:	74 12       	cpse	r7, r20
    3d68:	b9 c0       	rjmp	.+370    	; 0x3edc <vTaskList+0x868>
    3d6a:	31 96       	adiw	r30, 0x01	; 1
    3d6c:	41 2c       	mov	r4, r1
    3d6e:	51 2c       	mov	r5, r1
    3d70:	32 01       	movw	r6, r4
    3d72:	5f ef       	ldi	r21, 0xFF	; 255
    3d74:	45 1a       	sub	r4, r21
    3d76:	55 0a       	sbc	r5, r21
    3d78:	65 0a       	sbc	r6, r21
    3d7a:	75 0a       	sbc	r7, r21
    3d7c:	41 91       	ld	r20, Z+
    3d7e:	45 3a       	cpi	r20, 0xA5	; 165
    3d80:	c1 f3       	breq	.-16     	; 0x3d72 <vTaskList+0x6fe>
    3d82:	fc 01       	movw	r30, r24
    3d84:	56 86       	std	Z+14, r5	; 0x0e
    3d86:	45 86       	std	Z+13, r4	; 0x0d
    3d88:	b3 94       	inc	r11
    3d8a:	ca 16       	cp	r12, r26
    3d8c:	db 06       	cpc	r13, r27
    3d8e:	09 f0       	breq	.+2      	; 0x3d92 <vTaskList+0x71e>
    3d90:	ad cf       	rjmp	.-166    	; 0x3cec <vTaskList+0x678>
    3d92:	ab 0c       	add	r10, r11
    3d94:	80 91 5e 14 	lds	r24, 0x145E
    3d98:	88 23       	and	r24, r24
    3d9a:	09 f4       	brne	.+2      	; 0x3d9e <vTaskList+0x72a>
    3d9c:	9c c0       	rjmp	.+312    	; 0x3ed6 <vTaskList+0x862>
    3d9e:	e0 91 5f 14 	lds	r30, 0x145F
    3da2:	f0 91 60 14 	lds	r31, 0x1460
    3da6:	22 81       	ldd	r18, Z+2	; 0x02
    3da8:	33 81       	ldd	r19, Z+3	; 0x03
    3daa:	30 93 60 14 	sts	0x1460, r19
    3dae:	20 93 5f 14 	sts	0x145F, r18
    3db2:	20 90 63 14 	lds	r2, 0x1463
    3db6:	30 90 64 14 	lds	r3, 0x1464
    3dba:	f4 e1       	ldi	r31, 0x14	; 20
    3dbc:	21 36       	cpi	r18, 0x61	; 97
    3dbe:	3f 07       	cpc	r19, r31
    3dc0:	09 f4       	brne	.+2      	; 0x3dc4 <vTaskList+0x750>
    3dc2:	22 c1       	rjmp	.+580    	; 0x4008 <vTaskList+0x994>
    3dc4:	d9 01       	movw	r26, r18
    3dc6:	16 96       	adiw	r26, 0x06	; 6
    3dc8:	cd 90       	ld	r12, X+
    3dca:	dc 90       	ld	r13, X
    3dcc:	17 97       	sbiw	r26, 0x07	; 7
    3dce:	b7 01       	movw	r22, r14
    3dd0:	bf e0       	ldi	r27, 0x0F	; 15
    3dd2:	ab 9e       	mul	r10, r27
    3dd4:	60 0d       	add	r22, r0
    3dd6:	71 1d       	adc	r23, r1
    3dd8:	11 24       	eor	r1, r1
    3dda:	b1 2c       	mov	r11, r1
    3ddc:	52 e0       	ldi	r21, 0x02	; 2
    3dde:	85 2e       	mov	r8, r21
    3de0:	91 2c       	mov	r9, r1
    3de2:	f9 01       	movw	r30, r18
    3de4:	22 81       	ldd	r18, Z+2	; 0x02
    3de6:	33 81       	ldd	r19, Z+3	; 0x03
    3de8:	30 93 60 14 	sts	0x1460, r19
    3dec:	20 93 5f 14 	sts	0x145F, r18
    3df0:	f4 e1       	ldi	r31, 0x14	; 20
    3df2:	21 36       	cpi	r18, 0x61	; 97
    3df4:	3f 07       	cpc	r19, r31
    3df6:	09 f4       	brne	.+2      	; 0x3dfa <vTaskList+0x786>
    3df8:	53 c0       	rjmp	.+166    	; 0x3ea0 <vTaskList+0x82c>
    3dfa:	f9 01       	movw	r30, r18
    3dfc:	a6 81       	ldd	r26, Z+6	; 0x06
    3dfe:	b7 81       	ldd	r27, Z+7	; 0x07
    3e00:	cb 01       	movw	r24, r22
    3e02:	ff e0       	ldi	r31, 0x0F	; 15
    3e04:	bf 9e       	mul	r11, r31
    3e06:	80 0d       	add	r24, r0
    3e08:	91 1d       	adc	r25, r1
    3e0a:	11 24       	eor	r1, r1
    3e0c:	fc 01       	movw	r30, r24
    3e0e:	b1 83       	std	Z+1, r27	; 0x01
    3e10:	a0 83       	st	Z, r26
    3e12:	ad 01       	movw	r20, r26
    3e14:	47 5e       	subi	r20, 0xE7	; 231
    3e16:	5f 4f       	sbci	r21, 0xFF	; 255
    3e18:	53 83       	std	Z+3, r21	; 0x03
    3e1a:	42 83       	std	Z+2, r20	; 0x02
    3e1c:	91 96       	adiw	r26, 0x21	; 33
    3e1e:	4c 91       	ld	r20, X
    3e20:	91 97       	sbiw	r26, 0x21	; 33
    3e22:	44 83       	std	Z+4, r20	; 0x04
    3e24:	43 e0       	ldi	r20, 0x03	; 3
    3e26:	50 e0       	ldi	r21, 0x00	; 0
    3e28:	56 83       	std	Z+6, r21	; 0x06
    3e2a:	45 83       	std	Z+5, r20	; 0x05
    3e2c:	56 96       	adiw	r26, 0x16	; 22
    3e2e:	4c 91       	ld	r20, X
    3e30:	56 97       	sbiw	r26, 0x16	; 22
    3e32:	47 83       	std	Z+7, r20	; 0x07
    3e34:	54 96       	adiw	r26, 0x14	; 20
    3e36:	ed 91       	ld	r30, X+
    3e38:	fc 91       	ld	r31, X
    3e3a:	55 97       	sbiw	r26, 0x15	; 21
    3e3c:	ef 2b       	or	r30, r31
    3e3e:	19 f0       	breq	.+6      	; 0x3e46 <vTaskList+0x7d2>
    3e40:	fc 01       	movw	r30, r24
    3e42:	96 82       	std	Z+6, r9	; 0x06
    3e44:	85 82       	std	Z+5, r8	; 0x05
    3e46:	93 96       	adiw	r26, 0x23	; 35
    3e48:	4c 91       	ld	r20, X
    3e4a:	93 97       	sbiw	r26, 0x23	; 35
    3e4c:	fc 01       	movw	r30, r24
    3e4e:	40 87       	std	Z+8, r20	; 0x08
    3e50:	94 96       	adiw	r26, 0x24	; 36
    3e52:	4d 90       	ld	r4, X+
    3e54:	5d 90       	ld	r5, X+
    3e56:	6d 90       	ld	r6, X+
    3e58:	7c 90       	ld	r7, X
    3e5a:	97 97       	sbiw	r26, 0x27	; 39
    3e5c:	41 86       	std	Z+9, r4	; 0x09
    3e5e:	52 86       	std	Z+10, r5	; 0x0a
    3e60:	63 86       	std	Z+11, r6	; 0x0b
    3e62:	74 86       	std	Z+12, r7	; 0x0c
    3e64:	57 96       	adiw	r26, 0x17	; 23
    3e66:	ed 91       	ld	r30, X+
    3e68:	fc 91       	ld	r31, X
    3e6a:	58 97       	sbiw	r26, 0x18	; 24
    3e6c:	70 80       	ld	r7, Z
    3e6e:	45 ea       	ldi	r20, 0xA5	; 165
    3e70:	74 12       	cpse	r7, r20
    3e72:	26 c0       	rjmp	.+76     	; 0x3ec0 <vTaskList+0x84c>
    3e74:	31 96       	adiw	r30, 0x01	; 1
    3e76:	41 2c       	mov	r4, r1
    3e78:	51 2c       	mov	r5, r1
    3e7a:	32 01       	movw	r6, r4
    3e7c:	5f ef       	ldi	r21, 0xFF	; 255
    3e7e:	45 1a       	sub	r4, r21
    3e80:	55 0a       	sbc	r5, r21
    3e82:	65 0a       	sbc	r6, r21
    3e84:	75 0a       	sbc	r7, r21
    3e86:	41 91       	ld	r20, Z+
    3e88:	45 3a       	cpi	r20, 0xA5	; 165
    3e8a:	c1 f3       	breq	.-16     	; 0x3e7c <vTaskList+0x808>
    3e8c:	fc 01       	movw	r30, r24
    3e8e:	56 86       	std	Z+14, r5	; 0x0e
    3e90:	45 86       	std	Z+13, r4	; 0x0d
    3e92:	b3 94       	inc	r11
    3e94:	ca 16       	cp	r12, r26
    3e96:	db 06       	cpc	r13, r27
    3e98:	09 f0       	breq	.+2      	; 0x3e9c <vTaskList+0x828>
    3e9a:	a3 cf       	rjmp	.-186    	; 0x3de2 <vTaskList+0x76e>
    3e9c:	ba 0c       	add	r11, r10
    3e9e:	a2 cc       	rjmp	.-1724   	; 0x37e4 <vTaskList+0x170>
    3ea0:	20 92 5f 14 	sts	0x145F, r2
    3ea4:	30 92 60 14 	sts	0x1460, r3
    3ea8:	91 01       	movw	r18, r2
    3eaa:	a7 cf       	rjmp	.-178    	; 0x3dfa <vTaskList+0x786>
    3eac:	90 92 69 14 	sts	0x1469, r9
    3eb0:	80 92 6a 14 	sts	0x146A, r8
    3eb4:	29 2d       	mov	r18, r9
    3eb6:	38 2d       	mov	r19, r8
    3eb8:	27 cf       	rjmp	.-434    	; 0x3d08 <vTaskList+0x694>
    3eba:	41 2c       	mov	r4, r1
    3ebc:	51 2c       	mov	r5, r1
    3ebe:	33 ce       	rjmp	.-922    	; 0x3b26 <vTaskList+0x4b2>
    3ec0:	41 2c       	mov	r4, r1
    3ec2:	51 2c       	mov	r5, r1
    3ec4:	fc 01       	movw	r30, r24
    3ec6:	56 86       	std	Z+14, r5	; 0x0e
    3ec8:	45 86       	std	Z+13, r4	; 0x0d
    3eca:	b3 94       	inc	r11
    3ecc:	ca 16       	cp	r12, r26
    3ece:	db 06       	cpc	r13, r27
    3ed0:	09 f0       	breq	.+2      	; 0x3ed4 <vTaskList+0x860>
    3ed2:	87 cf       	rjmp	.-242    	; 0x3de2 <vTaskList+0x76e>
    3ed4:	e3 cf       	rjmp	.-58     	; 0x3e9c <vTaskList+0x828>
    3ed6:	b1 2c       	mov	r11, r1
    3ed8:	ba 0c       	add	r11, r10
    3eda:	84 cc       	rjmp	.-1784   	; 0x37e4 <vTaskList+0x170>
    3edc:	41 2c       	mov	r4, r1
    3ede:	51 2c       	mov	r5, r1
    3ee0:	fc 01       	movw	r30, r24
    3ee2:	56 86       	std	Z+14, r5	; 0x0e
    3ee4:	45 86       	std	Z+13, r4	; 0x0d
    3ee6:	b3 94       	inc	r11
    3ee8:	ca 16       	cp	r12, r26
    3eea:	db 06       	cpc	r13, r27
    3eec:	09 f0       	breq	.+2      	; 0x3ef0 <vTaskList+0x87c>
    3eee:	fe ce       	rjmp	.-516    	; 0x3cec <vTaskList+0x678>
    3ef0:	50 cf       	rjmp	.-352    	; 0x3d92 <vTaskList+0x71e>
    3ef2:	b1 2c       	mov	r11, r1
    3ef4:	4e cf       	rjmp	.-356    	; 0x3d92 <vTaskList+0x71e>
    3ef6:	41 2c       	mov	r4, r1
    3ef8:	51 2c       	mov	r5, r1
    3efa:	b4 ce       	rjmp	.-664    	; 0x3c64 <vTaskList+0x5f0>
    3efc:	a0 92 57 14 	sts	0x1457, r10
    3f00:	b9 cc       	rjmp	.-1678   	; 0x3874 <vTaskList+0x200>
    3f02:	e0 91 7c 14 	lds	r30, 0x147C
    3f06:	f0 91 7d 14 	lds	r31, 0x147D
    3f0a:	80 81       	ld	r24, Z
    3f0c:	88 23       	and	r24, r24
    3f0e:	09 f4       	brne	.+2      	; 0x3f12 <vTaskList+0x89e>
    3f10:	4d c0       	rjmp	.+154    	; 0x3fac <vTaskList+0x938>
    3f12:	e0 91 7c 14 	lds	r30, 0x147C
    3f16:	f0 91 7d 14 	lds	r31, 0x147D
    3f1a:	05 80       	ldd	r0, Z+5	; 0x05
    3f1c:	f6 81       	ldd	r31, Z+6	; 0x06
    3f1e:	e0 2d       	mov	r30, r0
    3f20:	c6 80       	ldd	r12, Z+6	; 0x06
    3f22:	d7 80       	ldd	r13, Z+7	; 0x07
    3f24:	f6 01       	movw	r30, r12
    3f26:	82 81       	ldd	r24, Z+2	; 0x02
    3f28:	93 81       	ldd	r25, Z+3	; 0x03
    3f2a:	88 16       	cp	r8, r24
    3f2c:	99 06       	cpc	r9, r25
    3f2e:	08 f4       	brcc	.+2      	; 0x3f32 <vTaskList+0x8be>
    3f30:	4f c0       	rjmp	.+158    	; 0x3fd0 <vTaskList+0x95c>
    3f32:	26 01       	movw	r4, r12
    3f34:	f2 e0       	ldi	r31, 0x02	; 2
    3f36:	4f 0e       	add	r4, r31
    3f38:	51 1c       	adc	r5, r1
    3f3a:	c2 01       	movw	r24, r4
    3f3c:	0e 94 38 27 	call	0x4e70	; 0x4e70 <uxListRemove>
    3f40:	d6 01       	movw	r26, r12
    3f42:	54 96       	adiw	r26, 0x14	; 20
    3f44:	8d 91       	ld	r24, X+
    3f46:	9c 91       	ld	r25, X
    3f48:	55 97       	sbiw	r26, 0x15	; 21
    3f4a:	89 2b       	or	r24, r25
    3f4c:	21 f0       	breq	.+8      	; 0x3f56 <vTaskList+0x8e2>
    3f4e:	c6 01       	movw	r24, r12
    3f50:	0c 96       	adiw	r24, 0x0c	; 12
    3f52:	0e 94 38 27 	call	0x4e70	; 0x4e70 <uxListRemove>
    3f56:	f6 01       	movw	r30, r12
    3f58:	26 89       	ldd	r18, Z+22	; 0x16
    3f5a:	80 91 5a 14 	lds	r24, 0x145A
    3f5e:	82 17       	cp	r24, r18
    3f60:	10 f4       	brcc	.+4      	; 0x3f66 <vTaskList+0x8f2>
    3f62:	20 93 5a 14 	sts	0x145A, r18
    3f66:	30 e0       	ldi	r19, 0x00	; 0
    3f68:	c9 01       	movw	r24, r18
    3f6a:	88 0f       	add	r24, r24
    3f6c:	99 1f       	adc	r25, r25
    3f6e:	88 0f       	add	r24, r24
    3f70:	99 1f       	adc	r25, r25
    3f72:	88 0f       	add	r24, r24
    3f74:	99 1f       	adc	r25, r25
    3f76:	82 0f       	add	r24, r18
    3f78:	93 1f       	adc	r25, r19
    3f7a:	b2 01       	movw	r22, r4
    3f7c:	80 57       	subi	r24, 0x70	; 112
    3f7e:	9b 4e       	sbci	r25, 0xEB	; 235
    3f80:	0e 94 e6 26 	call	0x4dcc	; 0x4dcc <vListInsertEnd>
    3f84:	e0 91 b4 14 	lds	r30, 0x14B4
    3f88:	f0 91 b5 14 	lds	r31, 0x14B5
    3f8c:	d6 01       	movw	r26, r12
    3f8e:	56 96       	adiw	r26, 0x16	; 22
    3f90:	9c 91       	ld	r25, X
    3f92:	86 89       	ldd	r24, Z+22	; 0x16
    3f94:	98 17       	cp	r25, r24
    3f96:	08 f4       	brcc	.+2      	; 0x3f9a <vTaskList+0x926>
    3f98:	b4 cf       	rjmp	.-152    	; 0x3f02 <vTaskList+0x88e>
    3f9a:	aa 24       	eor	r10, r10
    3f9c:	a3 94       	inc	r10
    3f9e:	e0 91 7c 14 	lds	r30, 0x147C
    3fa2:	f0 91 7d 14 	lds	r31, 0x147D
    3fa6:	80 81       	ld	r24, Z
    3fa8:	81 11       	cpse	r24, r1
    3faa:	b3 cf       	rjmp	.-154    	; 0x3f12 <vTaskList+0x89e>
    3fac:	70 92 05 02 	sts	0x0205, r7
    3fb0:	60 92 04 02 	sts	0x0204, r6
    3fb4:	af cc       	rjmp	.-1698   	; 0x3914 <vTaskList+0x2a0>
    3fb6:	80 91 58 14 	lds	r24, 0x1458
    3fba:	8f 5f       	subi	r24, 0xFF	; 255
    3fbc:	80 93 58 14 	sts	0x1458, r24
    3fc0:	80 91 57 14 	lds	r24, 0x1457
    3fc4:	88 23       	and	r24, r24
    3fc6:	09 f4       	brne	.+2      	; 0x3fca <vTaskList+0x956>
    3fc8:	c2 cc       	rjmp	.-1660   	; 0x394e <vTaskList+0x2da>
    3fca:	30 92 57 14 	sts	0x1457, r3
    3fce:	bf cc       	rjmp	.-1666   	; 0x394e <vTaskList+0x2da>
    3fd0:	90 93 05 02 	sts	0x0205, r25
    3fd4:	80 93 04 02 	sts	0x0204, r24
    3fd8:	9d cc       	rjmp	.-1734   	; 0x3914 <vTaskList+0x2a0>
    3fda:	e0 91 7c 14 	lds	r30, 0x147C
    3fde:	f0 91 7d 14 	lds	r31, 0x147D
    3fe2:	05 80       	ldd	r0, Z+5	; 0x05
    3fe4:	f6 81       	ldd	r31, Z+6	; 0x06
    3fe6:	e0 2d       	mov	r30, r0
    3fe8:	06 80       	ldd	r0, Z+6	; 0x06
    3fea:	f7 81       	ldd	r31, Z+7	; 0x07
    3fec:	e0 2d       	mov	r30, r0
    3fee:	82 81       	ldd	r24, Z+2	; 0x02
    3ff0:	93 81       	ldd	r25, Z+3	; 0x03
    3ff2:	90 93 05 02 	sts	0x0205, r25
    3ff6:	80 93 04 02 	sts	0x0204, r24
    3ffa:	83 cc       	rjmp	.-1786   	; 0x3902 <vTaskList+0x28e>
    3ffc:	da 01       	movw	r26, r20
    3ffe:	12 96       	adiw	r26, 0x02	; 2
    4000:	ed 91       	ld	r30, X+
    4002:	fc 91       	ld	r31, X
    4004:	13 97       	sbiw	r26, 0x03	; 3
    4006:	84 cb       	rjmp	.-2296   	; 0x3710 <vTaskList+0x9c>
    4008:	91 01       	movw	r18, r2
    400a:	dc ce       	rjmp	.-584    	; 0x3dc4 <vTaskList+0x750>
    400c:	0e 94 f7 25 	call	0x4bee	; 0x4bee <vPortYield>
    4010:	ac cc       	rjmp	.-1704   	; 0x396a <vTaskList+0x2f6>
    4012:	da 01       	movw	r26, r20
    4014:	12 96       	adiw	r26, 0x02	; 2
    4016:	ed 91       	ld	r30, X+
    4018:	fc 91       	ld	r31, X
    401a:	13 97       	sbiw	r26, 0x03	; 3
    401c:	2f cd       	rjmp	.-1442   	; 0x3a7c <vTaskList+0x408>
    401e:	da 01       	movw	r26, r20
    4020:	12 96       	adiw	r26, 0x02	; 2
    4022:	ed 91       	ld	r30, X+
    4024:	fc 91       	ld	r31, X
    4026:	13 97       	sbiw	r26, 0x03	; 3
    4028:	c8 cd       	rjmp	.-1136   	; 0x3bba <vTaskList+0x546>
    402a:	29 2d       	mov	r18, r9
    402c:	38 2d       	mov	r19, r8
    402e:	51 ce       	rjmp	.-862    	; 0x3cd2 <vTaskList+0x65e>

00004030 <vTaskGetRunTimeStats>:
    4030:	a4 e0       	ldi	r26, 0x04	; 4
    4032:	b0 e0       	ldi	r27, 0x00	; 0
    4034:	ee e1       	ldi	r30, 0x1E	; 30
    4036:	f0 e2       	ldi	r31, 0x20	; 32
    4038:	0c 94 92 27 	jmp	0x4f24	; 0x4f24 <__prologue_saves__>
    403c:	8c 01       	movw	r16, r24
    403e:	dc 01       	movw	r26, r24
    4040:	1c 92       	st	X, r1
    4042:	80 91 5d 14 	lds	r24, 0x145D
    4046:	8a 83       	std	Y+2, r24	; 0x02
    4048:	80 91 5d 14 	lds	r24, 0x145D
    404c:	bf e0       	ldi	r27, 0x0F	; 15
    404e:	8b 9f       	mul	r24, r27
    4050:	c0 01       	movw	r24, r0
    4052:	11 24       	eor	r1, r1
    4054:	0e 94 a4 0b 	call	0x1748	; 0x1748 <pvPortMalloc>
    4058:	7c 01       	movw	r14, r24
    405a:	00 97       	sbiw	r24, 0x00	; 0
    405c:	09 f4       	brne	.+2      	; 0x4060 <vTaskGetRunTimeStats+0x30>
    405e:	9b c0       	rjmp	.+310    	; 0x4196 <vTaskGetRunTimeStats+0x166>
    4060:	9a 81       	ldd	r25, Y+2	; 0x02
    4062:	80 91 54 14 	lds	r24, 0x1454
    4066:	8f 5f       	subi	r24, 0xFF	; 255
    4068:	80 93 54 14 	sts	0x1454, r24
    406c:	80 91 5d 14 	lds	r24, 0x145D
    4070:	98 17       	cp	r25, r24
    4072:	08 f4       	brcc	.+2      	; 0x4076 <vTaskGetRunTimeStats+0x46>
    4074:	94 c0       	rjmp	.+296    	; 0x419e <vTaskGetRunTimeStats+0x16e>
    4076:	54 e0       	ldi	r21, 0x04	; 4
    4078:	85 2e       	mov	r8, r21
    407a:	31 2c       	mov	r3, r1
    407c:	aa 24       	eor	r10, r10
    407e:	a3 94       	inc	r10
    4080:	b1 2c       	mov	r11, r1
    4082:	8a 94       	dec	r8
    4084:	28 2d       	mov	r18, r8
    4086:	30 e0       	ldi	r19, 0x00	; 0
    4088:	c9 01       	movw	r24, r18
    408a:	88 0f       	add	r24, r24
    408c:	99 1f       	adc	r25, r25
    408e:	88 0f       	add	r24, r24
    4090:	99 1f       	adc	r25, r25
    4092:	88 0f       	add	r24, r24
    4094:	99 1f       	adc	r25, r25
    4096:	82 0f       	add	r24, r18
    4098:	93 1f       	adc	r25, r19
    409a:	80 57       	subi	r24, 0x70	; 112
    409c:	9b 4e       	sbci	r25, 0xEB	; 235
    409e:	fc 01       	movw	r30, r24
    40a0:	20 81       	ld	r18, Z
    40a2:	22 23       	and	r18, r18
    40a4:	09 f4       	brne	.+2      	; 0x40a8 <vTaskGetRunTimeStats+0x78>
    40a6:	c8 c1       	rjmp	.+912    	; 0x4438 <vTaskGetRunTimeStats+0x408>
    40a8:	01 80       	ldd	r0, Z+1	; 0x01
    40aa:	f2 81       	ldd	r31, Z+2	; 0x02
    40ac:	e0 2d       	mov	r30, r0
    40ae:	02 80       	ldd	r0, Z+2	; 0x02
    40b0:	f3 81       	ldd	r31, Z+3	; 0x03
    40b2:	e0 2d       	mov	r30, r0
    40b4:	dc 01       	movw	r26, r24
    40b6:	12 96       	adiw	r26, 0x02	; 2
    40b8:	fc 93       	st	X, r31
    40ba:	ee 93       	st	-X, r30
    40bc:	11 97       	sbiw	r26, 0x01	; 1
    40be:	ac 01       	movw	r20, r24
    40c0:	4d 5f       	subi	r20, 0xFD	; 253
    40c2:	5f 4f       	sbci	r21, 0xFF	; 255
    40c4:	e4 17       	cp	r30, r20
    40c6:	f5 07       	cpc	r31, r21
    40c8:	09 f4       	brne	.+2      	; 0x40cc <vTaskGetRunTimeStats+0x9c>
    40ca:	a4 c4       	rjmp	.+2376   	; 0x4a14 <vTaskGetRunTimeStats+0x9e4>
    40cc:	c6 80       	ldd	r12, Z+6	; 0x06
    40ce:	d7 80       	ldd	r13, Z+7	; 0x07
    40d0:	97 01       	movw	r18, r14
    40d2:	6f e0       	ldi	r22, 0x0F	; 15
    40d4:	36 9e       	mul	r3, r22
    40d6:	20 0d       	add	r18, r0
    40d8:	31 1d       	adc	r19, r1
    40da:	11 24       	eor	r1, r1
    40dc:	3c 83       	std	Y+4, r19	; 0x04
    40de:	2b 83       	std	Y+3, r18	; 0x03
    40e0:	91 2c       	mov	r9, r1
    40e2:	22 81       	ldd	r18, Z+2	; 0x02
    40e4:	33 81       	ldd	r19, Z+3	; 0x03
    40e6:	dc 01       	movw	r26, r24
    40e8:	12 96       	adiw	r26, 0x02	; 2
    40ea:	3c 93       	st	X, r19
    40ec:	2e 93       	st	-X, r18
    40ee:	11 97       	sbiw	r26, 0x01	; 1
    40f0:	42 17       	cp	r20, r18
    40f2:	53 07       	cpc	r21, r19
    40f4:	09 f4       	brne	.+2      	; 0x40f8 <vTaskGetRunTimeStats+0xc8>
    40f6:	30 c2       	rjmp	.+1120   	; 0x4558 <vTaskGetRunTimeStats+0x528>
    40f8:	f9 01       	movw	r30, r18
    40fa:	a6 81       	ldd	r26, Z+6	; 0x06
    40fc:	b7 81       	ldd	r27, Z+7	; 0x07
    40fe:	2b 81       	ldd	r18, Y+3	; 0x03
    4100:	3c 81       	ldd	r19, Y+4	; 0x04
    4102:	ef e0       	ldi	r30, 0x0F	; 15
    4104:	9e 9e       	mul	r9, r30
    4106:	20 0d       	add	r18, r0
    4108:	31 1d       	adc	r19, r1
    410a:	11 24       	eor	r1, r1
    410c:	f9 01       	movw	r30, r18
    410e:	b1 83       	std	Z+1, r27	; 0x01
    4110:	a0 83       	st	Z, r26
    4112:	bd 01       	movw	r22, r26
    4114:	67 5e       	subi	r22, 0xE7	; 231
    4116:	7f 4f       	sbci	r23, 0xFF	; 255
    4118:	73 83       	std	Z+3, r23	; 0x03
    411a:	62 83       	std	Z+2, r22	; 0x02
    411c:	91 96       	adiw	r26, 0x21	; 33
    411e:	6c 91       	ld	r22, X
    4120:	91 97       	sbiw	r26, 0x21	; 33
    4122:	64 83       	std	Z+4, r22	; 0x04
    4124:	b6 82       	std	Z+6, r11	; 0x06
    4126:	a5 82       	std	Z+5, r10	; 0x05
    4128:	56 96       	adiw	r26, 0x16	; 22
    412a:	6c 91       	ld	r22, X
    412c:	56 97       	sbiw	r26, 0x16	; 22
    412e:	67 83       	std	Z+7, r22	; 0x07
    4130:	93 96       	adiw	r26, 0x23	; 35
    4132:	6c 91       	ld	r22, X
    4134:	93 97       	sbiw	r26, 0x23	; 35
    4136:	60 87       	std	Z+8, r22	; 0x08
    4138:	94 96       	adiw	r26, 0x24	; 36
    413a:	4d 90       	ld	r4, X+
    413c:	5d 90       	ld	r5, X+
    413e:	6d 90       	ld	r6, X+
    4140:	7c 90       	ld	r7, X
    4142:	97 97       	sbiw	r26, 0x27	; 39
    4144:	41 86       	std	Z+9, r4	; 0x09
    4146:	52 86       	std	Z+10, r5	; 0x0a
    4148:	63 86       	std	Z+11, r6	; 0x0b
    414a:	74 86       	std	Z+12, r7	; 0x0c
    414c:	57 96       	adiw	r26, 0x17	; 23
    414e:	ed 91       	ld	r30, X+
    4150:	fc 91       	ld	r31, X
    4152:	58 97       	sbiw	r26, 0x18	; 24
    4154:	70 80       	ld	r7, Z
    4156:	65 ea       	ldi	r22, 0xA5	; 165
    4158:	76 12       	cpse	r7, r22
    415a:	0c c2       	rjmp	.+1048   	; 0x4574 <vTaskGetRunTimeStats+0x544>
    415c:	31 96       	adiw	r30, 0x01	; 1
    415e:	41 2c       	mov	r4, r1
    4160:	51 2c       	mov	r5, r1
    4162:	32 01       	movw	r6, r4
    4164:	6f ef       	ldi	r22, 0xFF	; 255
    4166:	46 1a       	sub	r4, r22
    4168:	56 0a       	sbc	r5, r22
    416a:	66 0a       	sbc	r6, r22
    416c:	76 0a       	sbc	r7, r22
    416e:	61 91       	ld	r22, Z+
    4170:	65 3a       	cpi	r22, 0xA5	; 165
    4172:	c1 f3       	breq	.-16     	; 0x4164 <vTaskGetRunTimeStats+0x134>
    4174:	f9 01       	movw	r30, r18
    4176:	56 86       	std	Z+14, r5	; 0x0e
    4178:	45 86       	std	Z+13, r4	; 0x0d
    417a:	93 94       	inc	r9
    417c:	ca 16       	cp	r12, r26
    417e:	db 06       	cpc	r13, r27
    4180:	09 f4       	brne	.+2      	; 0x4184 <vTaskGetRunTimeStats+0x154>
    4182:	5b c1       	rjmp	.+694    	; 0x443a <vTaskGetRunTimeStats+0x40a>
    4184:	dc 01       	movw	r26, r24
    4186:	11 96       	adiw	r26, 0x01	; 1
    4188:	ed 91       	ld	r30, X+
    418a:	fc 91       	ld	r31, X
    418c:	12 97       	sbiw	r26, 0x02	; 2
    418e:	a9 cf       	rjmp	.-174    	; 0x40e2 <vTaskGetRunTimeStats+0xb2>
    4190:	c7 01       	movw	r24, r14
    4192:	0e 94 aa 0c 	call	0x1954	; 0x1954 <vPortFree>
    4196:	24 96       	adiw	r28, 0x04	; 4
    4198:	e2 e1       	ldi	r30, 0x12	; 18
    419a:	0c 94 ae 27 	jmp	0x4f5c	; 0x4f5c <__epilogue_restores__>
    419e:	b1 2c       	mov	r11, r1
    41a0:	0f b6       	in	r0, 0x3f	; 63
    41a2:	f8 94       	cli
    41a4:	0f 92       	push	r0
    41a6:	80 91 54 14 	lds	r24, 0x1454
    41aa:	81 50       	subi	r24, 0x01	; 1
    41ac:	80 93 54 14 	sts	0x1454, r24
    41b0:	80 91 54 14 	lds	r24, 0x1454
    41b4:	81 11       	cpse	r24, r1
    41b6:	b7 c0       	rjmp	.+366    	; 0x4326 <vTaskGetRunTimeStats+0x2f6>
    41b8:	80 91 5d 14 	lds	r24, 0x145D
    41bc:	88 23       	and	r24, r24
    41be:	09 f4       	brne	.+2      	; 0x41c2 <vTaskGetRunTimeStats+0x192>
    41c0:	b2 c0       	rjmp	.+356    	; 0x4326 <vTaskGetRunTimeStats+0x2f6>
    41c2:	aa 24       	eor	r10, r10
    41c4:	a3 94       	inc	r10
    41c6:	34 c0       	rjmp	.+104    	; 0x4230 <vTaskGetRunTimeStats+0x200>
    41c8:	e0 91 76 14 	lds	r30, 0x1476
    41cc:	f0 91 77 14 	lds	r31, 0x1477
    41d0:	c6 80       	ldd	r12, Z+6	; 0x06
    41d2:	d7 80       	ldd	r13, Z+7	; 0x07
    41d4:	c6 01       	movw	r24, r12
    41d6:	0c 96       	adiw	r24, 0x0c	; 12
    41d8:	0e 94 38 27 	call	0x4e70	; 0x4e70 <uxListRemove>
    41dc:	46 01       	movw	r8, r12
    41de:	f2 e0       	ldi	r31, 0x02	; 2
    41e0:	8f 0e       	add	r8, r31
    41e2:	91 1c       	adc	r9, r1
    41e4:	c4 01       	movw	r24, r8
    41e6:	0e 94 38 27 	call	0x4e70	; 0x4e70 <uxListRemove>
    41ea:	d6 01       	movw	r26, r12
    41ec:	56 96       	adiw	r26, 0x16	; 22
    41ee:	2c 91       	ld	r18, X
    41f0:	80 91 5a 14 	lds	r24, 0x145A
    41f4:	82 17       	cp	r24, r18
    41f6:	10 f4       	brcc	.+4      	; 0x41fc <vTaskGetRunTimeStats+0x1cc>
    41f8:	20 93 5a 14 	sts	0x145A, r18
    41fc:	30 e0       	ldi	r19, 0x00	; 0
    41fe:	c9 01       	movw	r24, r18
    4200:	88 0f       	add	r24, r24
    4202:	99 1f       	adc	r25, r25
    4204:	88 0f       	add	r24, r24
    4206:	99 1f       	adc	r25, r25
    4208:	88 0f       	add	r24, r24
    420a:	99 1f       	adc	r25, r25
    420c:	82 0f       	add	r24, r18
    420e:	93 1f       	adc	r25, r19
    4210:	b4 01       	movw	r22, r8
    4212:	80 57       	subi	r24, 0x70	; 112
    4214:	9b 4e       	sbci	r25, 0xEB	; 235
    4216:	0e 94 e6 26 	call	0x4dcc	; 0x4dcc <vListInsertEnd>
    421a:	e0 91 b4 14 	lds	r30, 0x14B4
    421e:	f0 91 b5 14 	lds	r31, 0x14B5
    4222:	d6 01       	movw	r26, r12
    4224:	56 96       	adiw	r26, 0x16	; 22
    4226:	9c 91       	ld	r25, X
    4228:	86 89       	ldd	r24, Z+22	; 0x16
    422a:	98 17       	cp	r25, r24
    422c:	08 f0       	brcs	.+2      	; 0x4230 <vTaskGetRunTimeStats+0x200>
    422e:	6f c3       	rjmp	.+1758   	; 0x490e <vTaskGetRunTimeStats+0x8de>
    4230:	80 91 71 14 	lds	r24, 0x1471
    4234:	81 11       	cpse	r24, r1
    4236:	c8 cf       	rjmp	.-112    	; 0x41c8 <vTaskGetRunTimeStats+0x198>
    4238:	80 91 58 14 	lds	r24, 0x1458
    423c:	88 23       	and	r24, r24
    423e:	09 f4       	brne	.+2      	; 0x4242 <vTaskGetRunTimeStats+0x212>
    4240:	6d c0       	rjmp	.+218    	; 0x431c <vTaskGetRunTimeStats+0x2ec>
    4242:	80 91 58 14 	lds	r24, 0x1458
    4246:	88 23       	and	r24, r24
    4248:	09 f4       	brne	.+2      	; 0x424c <vTaskGetRunTimeStats+0x21c>
    424a:	68 c0       	rjmp	.+208    	; 0x431c <vTaskGetRunTimeStats+0x2ec>
    424c:	aa 24       	eor	r10, r10
    424e:	a3 94       	inc	r10
    4250:	80 91 54 14 	lds	r24, 0x1454
    4254:	81 11       	cpse	r24, r1
    4256:	bb c3       	rjmp	.+1910   	; 0x49ce <vTaskGetRunTimeStats+0x99e>
    4258:	80 91 5b 14 	lds	r24, 0x145B
    425c:	90 91 5c 14 	lds	r25, 0x145C
    4260:	01 96       	adiw	r24, 0x01	; 1
    4262:	90 93 5c 14 	sts	0x145C, r25
    4266:	80 93 5b 14 	sts	0x145B, r24
    426a:	80 90 5b 14 	lds	r8, 0x145B
    426e:	90 90 5c 14 	lds	r9, 0x145C
    4272:	81 14       	cp	r8, r1
    4274:	91 04       	cpc	r9, r1
    4276:	11 f5       	brne	.+68     	; 0x42bc <vTaskGetRunTimeStats+0x28c>
    4278:	80 91 7c 14 	lds	r24, 0x147C
    427c:	90 91 7d 14 	lds	r25, 0x147D
    4280:	20 91 7a 14 	lds	r18, 0x147A
    4284:	30 91 7b 14 	lds	r19, 0x147B
    4288:	30 93 7d 14 	sts	0x147D, r19
    428c:	20 93 7c 14 	sts	0x147C, r18
    4290:	90 93 7b 14 	sts	0x147B, r25
    4294:	80 93 7a 14 	sts	0x147A, r24
    4298:	80 91 56 14 	lds	r24, 0x1456
    429c:	8f 5f       	subi	r24, 0xFF	; 255
    429e:	80 93 56 14 	sts	0x1456, r24
    42a2:	e0 91 7c 14 	lds	r30, 0x147C
    42a6:	f0 91 7d 14 	lds	r31, 0x147D
    42aa:	80 81       	ld	r24, Z
    42ac:	81 11       	cpse	r24, r1
    42ae:	a1 c3       	rjmp	.+1858   	; 0x49f2 <vTaskGetRunTimeStats+0x9c2>
    42b0:	ef ef       	ldi	r30, 0xFF	; 255
    42b2:	ff ef       	ldi	r31, 0xFF	; 255
    42b4:	f0 93 05 02 	sts	0x0205, r31
    42b8:	e0 93 04 02 	sts	0x0204, r30
    42bc:	80 91 04 02 	lds	r24, 0x0204
    42c0:	90 91 05 02 	lds	r25, 0x0205
    42c4:	1b 82       	std	Y+3, r1	; 0x03
    42c6:	88 16       	cp	r8, r24
    42c8:	99 06       	cpc	r9, r25
    42ca:	08 f0       	brcs	.+2      	; 0x42ce <vTaskGetRunTimeStats+0x29e>
    42cc:	23 c3       	rjmp	.+1606   	; 0x4914 <vTaskGetRunTimeStats+0x8e4>
    42ce:	e0 91 b4 14 	lds	r30, 0x14B4
    42d2:	f0 91 b5 14 	lds	r31, 0x14B5
    42d6:	86 89       	ldd	r24, Z+22	; 0x16
    42d8:	90 e0       	ldi	r25, 0x00	; 0
    42da:	fc 01       	movw	r30, r24
    42dc:	ee 0f       	add	r30, r30
    42de:	ff 1f       	adc	r31, r31
    42e0:	ee 0f       	add	r30, r30
    42e2:	ff 1f       	adc	r31, r31
    42e4:	ee 0f       	add	r30, r30
    42e6:	ff 1f       	adc	r31, r31
    42e8:	e8 0f       	add	r30, r24
    42ea:	f9 1f       	adc	r31, r25
    42ec:	e0 57       	subi	r30, 0x70	; 112
    42ee:	fb 4e       	sbci	r31, 0xEB	; 235
    42f0:	80 81       	ld	r24, Z
    42f2:	82 30       	cpi	r24, 0x02	; 2
    42f4:	18 f0       	brcs	.+6      	; 0x42fc <vTaskGetRunTimeStats+0x2cc>
    42f6:	80 91 57 14 	lds	r24, 0x1457
    42fa:	73 c3       	rjmp	.+1766   	; 0x49e2 <vTaskGetRunTimeStats+0x9b2>
    42fc:	80 91 57 14 	lds	r24, 0x1457
    4300:	81 11       	cpse	r24, r1
    4302:	6f c3       	rjmp	.+1758   	; 0x49e2 <vTaskGetRunTimeStats+0x9b2>
    4304:	2b 81       	ldd	r18, Y+3	; 0x03
    4306:	21 11       	cpse	r18, r1
    4308:	6c c3       	rjmp	.+1752   	; 0x49e2 <vTaskGetRunTimeStats+0x9b2>
    430a:	80 91 58 14 	lds	r24, 0x1458
    430e:	81 50       	subi	r24, 0x01	; 1
    4310:	80 93 58 14 	sts	0x1458, r24
    4314:	80 91 58 14 	lds	r24, 0x1458
    4318:	81 11       	cpse	r24, r1
    431a:	9a cf       	rjmp	.-204    	; 0x4250 <vTaskGetRunTimeStats+0x220>
    431c:	80 91 57 14 	lds	r24, 0x1457
    4320:	81 30       	cpi	r24, 0x01	; 1
    4322:	09 f4       	brne	.+2      	; 0x4326 <vTaskGetRunTimeStats+0x2f6>
    4324:	7f c3       	rjmp	.+1790   	; 0x4a24 <vTaskGetRunTimeStats+0x9f4>
    4326:	0f 90       	pop	r0
    4328:	0f be       	out	0x3f, r0	; 63
    432a:	ba 82       	std	Y+2, r11	; 0x02
    432c:	c3 01       	movw	r24, r6
    432e:	b2 01       	movw	r22, r4
    4330:	24 e6       	ldi	r18, 0x64	; 100
    4332:	30 e0       	ldi	r19, 0x00	; 0
    4334:	40 e0       	ldi	r20, 0x00	; 0
    4336:	50 e0       	ldi	r21, 0x00	; 0
    4338:	0e 94 70 27 	call	0x4ee0	; 0x4ee0 <__udivmodsi4>
    433c:	29 01       	movw	r4, r18
    433e:	3a 01       	movw	r6, r20
    4340:	21 15       	cp	r18, r1
    4342:	31 05       	cpc	r19, r1
    4344:	41 05       	cpc	r20, r1
    4346:	51 05       	cpc	r21, r1
    4348:	09 f4       	brne	.+2      	; 0x434c <vTaskGetRunTimeStats+0x31c>
    434a:	22 cf       	rjmp	.-444    	; 0x4190 <vTaskGetRunTimeStats+0x160>
    434c:	19 82       	std	Y+1, r1	; 0x01
    434e:	99 81       	ldd	r25, Y+1	; 0x01
    4350:	8a 81       	ldd	r24, Y+2	; 0x02
    4352:	98 17       	cp	r25, r24
    4354:	08 f0       	brcs	.+2      	; 0x4358 <vTaskGetRunTimeStats+0x328>
    4356:	1c cf       	rjmp	.-456    	; 0x4190 <vTaskGetRunTimeStats+0x160>
    4358:	71 e3       	ldi	r23, 0x31	; 49
    435a:	a7 2e       	mov	r10, r23
    435c:	72 e0       	ldi	r23, 0x02	; 2
    435e:	b7 2e       	mov	r11, r23
    4360:	e2 e2       	ldi	r30, 0x22	; 34
    4362:	ce 2e       	mov	r12, r30
    4364:	e2 e0       	ldi	r30, 0x02	; 2
    4366:	de 2e       	mov	r13, r30
    4368:	30 c0       	rjmp	.+96     	; 0x43ca <vTaskGetRunTimeStats+0x39a>
    436a:	3f 93       	push	r19
    436c:	2f 93       	push	r18
    436e:	f7 01       	movw	r30, r14
    4370:	4f e0       	ldi	r20, 0x0F	; 15
    4372:	94 9f       	mul	r25, r20
    4374:	e0 0d       	add	r30, r0
    4376:	f1 1d       	adc	r31, r1
    4378:	11 24       	eor	r1, r1
    437a:	92 85       	ldd	r25, Z+10	; 0x0a
    437c:	9f 93       	push	r25
    437e:	91 85       	ldd	r25, Z+9	; 0x09
    4380:	9f 93       	push	r25
    4382:	f7 01       	movw	r30, r14
    4384:	5f e0       	ldi	r21, 0x0F	; 15
    4386:	85 9f       	mul	r24, r21
    4388:	e0 0d       	add	r30, r0
    438a:	f1 1d       	adc	r31, r1
    438c:	11 24       	eor	r1, r1
    438e:	83 81       	ldd	r24, Z+3	; 0x03
    4390:	8f 93       	push	r24
    4392:	82 81       	ldd	r24, Z+2	; 0x02
    4394:	8f 93       	push	r24
    4396:	df 92       	push	r13
    4398:	cf 92       	push	r12
    439a:	1f 93       	push	r17
    439c:	0f 93       	push	r16
    439e:	0e 94 d9 27 	call	0x4fb2	; 0x4fb2 <sprintf>
    43a2:	0f b6       	in	r0, 0x3f	; 63
    43a4:	f8 94       	cli
    43a6:	de bf       	out	0x3e, r29	; 62
    43a8:	0f be       	out	0x3f, r0	; 63
    43aa:	cd bf       	out	0x3d, r28	; 61
    43ac:	d8 01       	movw	r26, r16
    43ae:	0d 90       	ld	r0, X+
    43b0:	00 20       	and	r0, r0
    43b2:	e9 f7       	brne	.-6      	; 0x43ae <vTaskGetRunTimeStats+0x37e>
    43b4:	8d 01       	movw	r16, r26
    43b6:	01 50       	subi	r16, 0x01	; 1
    43b8:	11 09       	sbc	r17, r1
    43ba:	89 81       	ldd	r24, Y+1	; 0x01
    43bc:	8f 5f       	subi	r24, 0xFF	; 255
    43be:	89 83       	std	Y+1, r24	; 0x01
    43c0:	99 81       	ldd	r25, Y+1	; 0x01
    43c2:	8a 81       	ldd	r24, Y+2	; 0x02
    43c4:	98 17       	cp	r25, r24
    43c6:	08 f0       	brcs	.+2      	; 0x43ca <vTaskGetRunTimeStats+0x39a>
    43c8:	e3 ce       	rjmp	.-570    	; 0x4190 <vTaskGetRunTimeStats+0x160>
    43ca:	89 81       	ldd	r24, Y+1	; 0x01
    43cc:	f7 01       	movw	r30, r14
    43ce:	3f e0       	ldi	r19, 0x0F	; 15
    43d0:	83 9f       	mul	r24, r19
    43d2:	e0 0d       	add	r30, r0
    43d4:	f1 1d       	adc	r31, r1
    43d6:	11 24       	eor	r1, r1
    43d8:	61 85       	ldd	r22, Z+9	; 0x09
    43da:	72 85       	ldd	r23, Z+10	; 0x0a
    43dc:	83 85       	ldd	r24, Z+11	; 0x0b
    43de:	94 85       	ldd	r25, Z+12	; 0x0c
    43e0:	a3 01       	movw	r20, r6
    43e2:	92 01       	movw	r18, r4
    43e4:	0e 94 70 27 	call	0x4ee0	; 0x4ee0 <__udivmodsi4>
    43e8:	99 81       	ldd	r25, Y+1	; 0x01
    43ea:	89 81       	ldd	r24, Y+1	; 0x01
    43ec:	21 15       	cp	r18, r1
    43ee:	31 05       	cpc	r19, r1
    43f0:	41 05       	cpc	r20, r1
    43f2:	51 05       	cpc	r21, r1
    43f4:	09 f0       	breq	.+2      	; 0x43f8 <vTaskGetRunTimeStats+0x3c8>
    43f6:	b9 cf       	rjmp	.-142    	; 0x436a <vTaskGetRunTimeStats+0x33a>
    43f8:	f7 01       	movw	r30, r14
    43fa:	af e0       	ldi	r26, 0x0F	; 15
    43fc:	9a 9f       	mul	r25, r26
    43fe:	e0 0d       	add	r30, r0
    4400:	f1 1d       	adc	r31, r1
    4402:	11 24       	eor	r1, r1
    4404:	92 85       	ldd	r25, Z+10	; 0x0a
    4406:	9f 93       	push	r25
    4408:	91 85       	ldd	r25, Z+9	; 0x09
    440a:	9f 93       	push	r25
    440c:	f7 01       	movw	r30, r14
    440e:	bf e0       	ldi	r27, 0x0F	; 15
    4410:	8b 9f       	mul	r24, r27
    4412:	e0 0d       	add	r30, r0
    4414:	f1 1d       	adc	r31, r1
    4416:	11 24       	eor	r1, r1
    4418:	83 81       	ldd	r24, Z+3	; 0x03
    441a:	8f 93       	push	r24
    441c:	82 81       	ldd	r24, Z+2	; 0x02
    441e:	8f 93       	push	r24
    4420:	bf 92       	push	r11
    4422:	af 92       	push	r10
    4424:	1f 93       	push	r17
    4426:	0f 93       	push	r16
    4428:	0e 94 d9 27 	call	0x4fb2	; 0x4fb2 <sprintf>
    442c:	0f b6       	in	r0, 0x3f	; 63
    442e:	f8 94       	cli
    4430:	de bf       	out	0x3e, r29	; 62
    4432:	0f be       	out	0x3f, r0	; 63
    4434:	cd bf       	out	0x3d, r28	; 61
    4436:	ba cf       	rjmp	.-140    	; 0x43ac <vTaskGetRunTimeStats+0x37c>
    4438:	91 2c       	mov	r9, r1
    443a:	39 0c       	add	r3, r9
    443c:	81 10       	cpse	r8, r1
    443e:	21 ce       	rjmp	.-958    	; 0x4082 <vTaskGetRunTimeStats+0x52>
    4440:	20 91 7c 14 	lds	r18, 0x147C
    4444:	30 91 7d 14 	lds	r19, 0x147D
    4448:	f9 01       	movw	r30, r18
    444a:	80 81       	ld	r24, Z
    444c:	88 23       	and	r24, r24
    444e:	09 f4       	brne	.+2      	; 0x4452 <vTaskGetRunTimeStats+0x422>
    4450:	94 c0       	rjmp	.+296    	; 0x457a <vTaskGetRunTimeStats+0x54a>
    4452:	01 80       	ldd	r0, Z+1	; 0x01
    4454:	f2 81       	ldd	r31, Z+2	; 0x02
    4456:	e0 2d       	mov	r30, r0
    4458:	02 80       	ldd	r0, Z+2	; 0x02
    445a:	f3 81       	ldd	r31, Z+3	; 0x03
    445c:	e0 2d       	mov	r30, r0
    445e:	d9 01       	movw	r26, r18
    4460:	12 96       	adiw	r26, 0x02	; 2
    4462:	fc 93       	st	X, r31
    4464:	ee 93       	st	-X, r30
    4466:	11 97       	sbiw	r26, 0x01	; 1
    4468:	a9 01       	movw	r20, r18
    446a:	4d 5f       	subi	r20, 0xFD	; 253
    446c:	5f 4f       	sbci	r21, 0xFF	; 255
    446e:	e4 17       	cp	r30, r20
    4470:	f5 07       	cpc	r31, r21
    4472:	09 f4       	brne	.+2      	; 0x4476 <vTaskGetRunTimeStats+0x446>
    4474:	da c2       	rjmp	.+1460   	; 0x4a2a <vTaskGetRunTimeStats+0x9fa>
    4476:	c6 80       	ldd	r12, Z+6	; 0x06
    4478:	d7 80       	ldd	r13, Z+7	; 0x07
    447a:	c7 01       	movw	r24, r14
    447c:	af e0       	ldi	r26, 0x0F	; 15
    447e:	3a 9e       	mul	r3, r26
    4480:	80 0d       	add	r24, r0
    4482:	91 1d       	adc	r25, r1
    4484:	11 24       	eor	r1, r1
    4486:	9c 83       	std	Y+4, r25	; 0x04
    4488:	8b 83       	std	Y+3, r24	; 0x03
    448a:	91 2c       	mov	r9, r1
    448c:	b2 e0       	ldi	r27, 0x02	; 2
    448e:	ab 2e       	mov	r10, r27
    4490:	b1 2c       	mov	r11, r1
    4492:	82 81       	ldd	r24, Z+2	; 0x02
    4494:	93 81       	ldd	r25, Z+3	; 0x03
    4496:	f9 01       	movw	r30, r18
    4498:	92 83       	std	Z+2, r25	; 0x02
    449a:	81 83       	std	Z+1, r24	; 0x01
    449c:	48 17       	cp	r20, r24
    449e:	59 07       	cpc	r21, r25
    44a0:	09 f4       	brne	.+2      	; 0x44a4 <vTaskGetRunTimeStats+0x474>
    44a2:	53 c0       	rjmp	.+166    	; 0x454a <vTaskGetRunTimeStats+0x51a>
    44a4:	fc 01       	movw	r30, r24
    44a6:	a6 81       	ldd	r26, Z+6	; 0x06
    44a8:	b7 81       	ldd	r27, Z+7	; 0x07
    44aa:	8b 81       	ldd	r24, Y+3	; 0x03
    44ac:	9c 81       	ldd	r25, Y+4	; 0x04
    44ae:	ff e0       	ldi	r31, 0x0F	; 15
    44b0:	9f 9e       	mul	r9, r31
    44b2:	80 0d       	add	r24, r0
    44b4:	91 1d       	adc	r25, r1
    44b6:	11 24       	eor	r1, r1
    44b8:	fc 01       	movw	r30, r24
    44ba:	b1 83       	std	Z+1, r27	; 0x01
    44bc:	a0 83       	st	Z, r26
    44be:	bd 01       	movw	r22, r26
    44c0:	67 5e       	subi	r22, 0xE7	; 231
    44c2:	7f 4f       	sbci	r23, 0xFF	; 255
    44c4:	73 83       	std	Z+3, r23	; 0x03
    44c6:	62 83       	std	Z+2, r22	; 0x02
    44c8:	91 96       	adiw	r26, 0x21	; 33
    44ca:	6c 91       	ld	r22, X
    44cc:	91 97       	sbiw	r26, 0x21	; 33
    44ce:	64 83       	std	Z+4, r22	; 0x04
    44d0:	b6 82       	std	Z+6, r11	; 0x06
    44d2:	a5 82       	std	Z+5, r10	; 0x05
    44d4:	56 96       	adiw	r26, 0x16	; 22
    44d6:	6c 91       	ld	r22, X
    44d8:	56 97       	sbiw	r26, 0x16	; 22
    44da:	67 83       	std	Z+7, r22	; 0x07
    44dc:	93 96       	adiw	r26, 0x23	; 35
    44de:	6c 91       	ld	r22, X
    44e0:	93 97       	sbiw	r26, 0x23	; 35
    44e2:	60 87       	std	Z+8, r22	; 0x08
    44e4:	94 96       	adiw	r26, 0x24	; 36
    44e6:	4d 90       	ld	r4, X+
    44e8:	5d 90       	ld	r5, X+
    44ea:	6d 90       	ld	r6, X+
    44ec:	7c 90       	ld	r7, X
    44ee:	97 97       	sbiw	r26, 0x27	; 39
    44f0:	41 86       	std	Z+9, r4	; 0x09
    44f2:	52 86       	std	Z+10, r5	; 0x0a
    44f4:	63 86       	std	Z+11, r6	; 0x0b
    44f6:	74 86       	std	Z+12, r7	; 0x0c
    44f8:	57 96       	adiw	r26, 0x17	; 23
    44fa:	ed 91       	ld	r30, X+
    44fc:	fc 91       	ld	r31, X
    44fe:	58 97       	sbiw	r26, 0x18	; 24
    4500:	80 80       	ld	r8, Z
    4502:	65 ea       	ldi	r22, 0xA5	; 165
    4504:	86 12       	cpse	r8, r22
    4506:	dc c1       	rjmp	.+952    	; 0x48c0 <vTaskGetRunTimeStats+0x890>
    4508:	31 96       	adiw	r30, 0x01	; 1
    450a:	41 2c       	mov	r4, r1
    450c:	51 2c       	mov	r5, r1
    450e:	32 01       	movw	r6, r4
    4510:	6f ef       	ldi	r22, 0xFF	; 255
    4512:	46 1a       	sub	r4, r22
    4514:	56 0a       	sbc	r5, r22
    4516:	66 0a       	sbc	r6, r22
    4518:	76 0a       	sbc	r7, r22
    451a:	61 91       	ld	r22, Z+
    451c:	65 3a       	cpi	r22, 0xA5	; 165
    451e:	c1 f3       	breq	.-16     	; 0x4510 <vTaskGetRunTimeStats+0x4e0>
    4520:	fc 01       	movw	r30, r24
    4522:	56 86       	std	Z+14, r5	; 0x0e
    4524:	45 86       	std	Z+13, r4	; 0x0d
    4526:	93 94       	inc	r9
    4528:	ca 16       	cp	r12, r26
    452a:	db 06       	cpc	r13, r27
    452c:	39 f1       	breq	.+78     	; 0x457c <vTaskGetRunTimeStats+0x54c>
    452e:	d9 01       	movw	r26, r18
    4530:	11 96       	adiw	r26, 0x01	; 1
    4532:	ed 91       	ld	r30, X+
    4534:	fc 91       	ld	r31, X
    4536:	12 97       	sbiw	r26, 0x02	; 2
    4538:	82 81       	ldd	r24, Z+2	; 0x02
    453a:	93 81       	ldd	r25, Z+3	; 0x03
    453c:	f9 01       	movw	r30, r18
    453e:	92 83       	std	Z+2, r25	; 0x02
    4540:	81 83       	std	Z+1, r24	; 0x01
    4542:	48 17       	cp	r20, r24
    4544:	59 07       	cpc	r21, r25
    4546:	09 f0       	breq	.+2      	; 0x454a <vTaskGetRunTimeStats+0x51a>
    4548:	ad cf       	rjmp	.-166    	; 0x44a4 <vTaskGetRunTimeStats+0x474>
    454a:	95 81       	ldd	r25, Z+5	; 0x05
    454c:	86 81       	ldd	r24, Z+6	; 0x06
    454e:	91 83       	std	Z+1, r25	; 0x01
    4550:	82 83       	std	Z+2, r24	; 0x02
    4552:	e9 2f       	mov	r30, r25
    4554:	f8 2f       	mov	r31, r24
    4556:	a7 cf       	rjmp	.-178    	; 0x44a6 <vTaskGetRunTimeStats+0x476>
    4558:	15 96       	adiw	r26, 0x05	; 5
    455a:	3c 91       	ld	r19, X
    455c:	15 97       	sbiw	r26, 0x05	; 5
    455e:	16 96       	adiw	r26, 0x06	; 6
    4560:	2c 91       	ld	r18, X
    4562:	16 97       	sbiw	r26, 0x06	; 6
    4564:	11 96       	adiw	r26, 0x01	; 1
    4566:	3c 93       	st	X, r19
    4568:	11 97       	sbiw	r26, 0x01	; 1
    456a:	12 96       	adiw	r26, 0x02	; 2
    456c:	2c 93       	st	X, r18
    456e:	e3 2f       	mov	r30, r19
    4570:	f2 2f       	mov	r31, r18
    4572:	c3 cd       	rjmp	.-1146   	; 0x40fa <vTaskGetRunTimeStats+0xca>
    4574:	41 2c       	mov	r4, r1
    4576:	51 2c       	mov	r5, r1
    4578:	fd cd       	rjmp	.-1030   	; 0x4174 <vTaskGetRunTimeStats+0x144>
    457a:	91 2c       	mov	r9, r1
    457c:	39 0c       	add	r3, r9
    457e:	20 91 7a 14 	lds	r18, 0x147A
    4582:	30 91 7b 14 	lds	r19, 0x147B
    4586:	f9 01       	movw	r30, r18
    4588:	80 81       	ld	r24, Z
    458a:	88 23       	and	r24, r24
    458c:	09 f4       	brne	.+2      	; 0x4590 <vTaskGetRunTimeStats+0x560>
    458e:	83 c0       	rjmp	.+262    	; 0x4696 <vTaskGetRunTimeStats+0x666>
    4590:	01 80       	ldd	r0, Z+1	; 0x01
    4592:	f2 81       	ldd	r31, Z+2	; 0x02
    4594:	e0 2d       	mov	r30, r0
    4596:	02 80       	ldd	r0, Z+2	; 0x02
    4598:	f3 81       	ldd	r31, Z+3	; 0x03
    459a:	e0 2d       	mov	r30, r0
    459c:	d9 01       	movw	r26, r18
    459e:	12 96       	adiw	r26, 0x02	; 2
    45a0:	fc 93       	st	X, r31
    45a2:	ee 93       	st	-X, r30
    45a4:	11 97       	sbiw	r26, 0x01	; 1
    45a6:	a9 01       	movw	r20, r18
    45a8:	4d 5f       	subi	r20, 0xFD	; 253
    45aa:	5f 4f       	sbci	r21, 0xFF	; 255
    45ac:	e4 17       	cp	r30, r20
    45ae:	f5 07       	cpc	r31, r21
    45b0:	09 f4       	brne	.+2      	; 0x45b4 <vTaskGetRunTimeStats+0x584>
    45b2:	41 c2       	rjmp	.+1154   	; 0x4a36 <vTaskGetRunTimeStats+0xa06>
    45b4:	c6 80       	ldd	r12, Z+6	; 0x06
    45b6:	d7 80       	ldd	r13, Z+7	; 0x07
    45b8:	c7 01       	movw	r24, r14
    45ba:	af e0       	ldi	r26, 0x0F	; 15
    45bc:	3a 9e       	mul	r3, r26
    45be:	80 0d       	add	r24, r0
    45c0:	91 1d       	adc	r25, r1
    45c2:	11 24       	eor	r1, r1
    45c4:	9c 83       	std	Y+4, r25	; 0x04
    45c6:	8b 83       	std	Y+3, r24	; 0x03
    45c8:	91 2c       	mov	r9, r1
    45ca:	a2 e0       	ldi	r26, 0x02	; 2
    45cc:	aa 2e       	mov	r10, r26
    45ce:	b1 2c       	mov	r11, r1
    45d0:	82 81       	ldd	r24, Z+2	; 0x02
    45d2:	93 81       	ldd	r25, Z+3	; 0x03
    45d4:	f9 01       	movw	r30, r18
    45d6:	92 83       	std	Z+2, r25	; 0x02
    45d8:	81 83       	std	Z+1, r24	; 0x01
    45da:	48 17       	cp	r20, r24
    45dc:	59 07       	cpc	r21, r25
    45de:	09 f4       	brne	.+2      	; 0x45e2 <vTaskGetRunTimeStats+0x5b2>
    45e0:	53 c0       	rjmp	.+166    	; 0x4688 <vTaskGetRunTimeStats+0x658>
    45e2:	fc 01       	movw	r30, r24
    45e4:	a6 81       	ldd	r26, Z+6	; 0x06
    45e6:	b7 81       	ldd	r27, Z+7	; 0x07
    45e8:	8b 81       	ldd	r24, Y+3	; 0x03
    45ea:	9c 81       	ldd	r25, Y+4	; 0x04
    45ec:	ff e0       	ldi	r31, 0x0F	; 15
    45ee:	9f 9e       	mul	r9, r31
    45f0:	80 0d       	add	r24, r0
    45f2:	91 1d       	adc	r25, r1
    45f4:	11 24       	eor	r1, r1
    45f6:	fc 01       	movw	r30, r24
    45f8:	b1 83       	std	Z+1, r27	; 0x01
    45fa:	a0 83       	st	Z, r26
    45fc:	bd 01       	movw	r22, r26
    45fe:	67 5e       	subi	r22, 0xE7	; 231
    4600:	7f 4f       	sbci	r23, 0xFF	; 255
    4602:	73 83       	std	Z+3, r23	; 0x03
    4604:	62 83       	std	Z+2, r22	; 0x02
    4606:	91 96       	adiw	r26, 0x21	; 33
    4608:	6c 91       	ld	r22, X
    460a:	91 97       	sbiw	r26, 0x21	; 33
    460c:	64 83       	std	Z+4, r22	; 0x04
    460e:	b6 82       	std	Z+6, r11	; 0x06
    4610:	a5 82       	std	Z+5, r10	; 0x05
    4612:	56 96       	adiw	r26, 0x16	; 22
    4614:	6c 91       	ld	r22, X
    4616:	56 97       	sbiw	r26, 0x16	; 22
    4618:	67 83       	std	Z+7, r22	; 0x07
    461a:	93 96       	adiw	r26, 0x23	; 35
    461c:	6c 91       	ld	r22, X
    461e:	93 97       	sbiw	r26, 0x23	; 35
    4620:	60 87       	std	Z+8, r22	; 0x08
    4622:	94 96       	adiw	r26, 0x24	; 36
    4624:	4d 90       	ld	r4, X+
    4626:	5d 90       	ld	r5, X+
    4628:	6d 90       	ld	r6, X+
    462a:	7c 90       	ld	r7, X
    462c:	97 97       	sbiw	r26, 0x27	; 39
    462e:	41 86       	std	Z+9, r4	; 0x09
    4630:	52 86       	std	Z+10, r5	; 0x0a
    4632:	63 86       	std	Z+11, r6	; 0x0b
    4634:	74 86       	std	Z+12, r7	; 0x0c
    4636:	57 96       	adiw	r26, 0x17	; 23
    4638:	ed 91       	ld	r30, X+
    463a:	fc 91       	ld	r31, X
    463c:	58 97       	sbiw	r26, 0x18	; 24
    463e:	80 80       	ld	r8, Z
    4640:	65 ea       	ldi	r22, 0xA5	; 165
    4642:	86 12       	cpse	r8, r22
    4644:	61 c1       	rjmp	.+706    	; 0x4908 <vTaskGetRunTimeStats+0x8d8>
    4646:	31 96       	adiw	r30, 0x01	; 1
    4648:	41 2c       	mov	r4, r1
    464a:	51 2c       	mov	r5, r1
    464c:	32 01       	movw	r6, r4
    464e:	6f ef       	ldi	r22, 0xFF	; 255
    4650:	46 1a       	sub	r4, r22
    4652:	56 0a       	sbc	r5, r22
    4654:	66 0a       	sbc	r6, r22
    4656:	76 0a       	sbc	r7, r22
    4658:	61 91       	ld	r22, Z+
    465a:	65 3a       	cpi	r22, 0xA5	; 165
    465c:	c1 f3       	breq	.-16     	; 0x464e <vTaskGetRunTimeStats+0x61e>
    465e:	fc 01       	movw	r30, r24
    4660:	56 86       	std	Z+14, r5	; 0x0e
    4662:	45 86       	std	Z+13, r4	; 0x0d
    4664:	93 94       	inc	r9
    4666:	ca 16       	cp	r12, r26
    4668:	db 06       	cpc	r13, r27
    466a:	b1 f0       	breq	.+44     	; 0x4698 <vTaskGetRunTimeStats+0x668>
    466c:	d9 01       	movw	r26, r18
    466e:	11 96       	adiw	r26, 0x01	; 1
    4670:	ed 91       	ld	r30, X+
    4672:	fc 91       	ld	r31, X
    4674:	12 97       	sbiw	r26, 0x02	; 2
    4676:	82 81       	ldd	r24, Z+2	; 0x02
    4678:	93 81       	ldd	r25, Z+3	; 0x03
    467a:	f9 01       	movw	r30, r18
    467c:	92 83       	std	Z+2, r25	; 0x02
    467e:	81 83       	std	Z+1, r24	; 0x01
    4680:	48 17       	cp	r20, r24
    4682:	59 07       	cpc	r21, r25
    4684:	09 f0       	breq	.+2      	; 0x4688 <vTaskGetRunTimeStats+0x658>
    4686:	ad cf       	rjmp	.-166    	; 0x45e2 <vTaskGetRunTimeStats+0x5b2>
    4688:	95 81       	ldd	r25, Z+5	; 0x05
    468a:	86 81       	ldd	r24, Z+6	; 0x06
    468c:	91 83       	std	Z+1, r25	; 0x01
    468e:	82 83       	std	Z+2, r24	; 0x02
    4690:	e9 2f       	mov	r30, r25
    4692:	f8 2f       	mov	r31, r24
    4694:	a7 cf       	rjmp	.-178    	; 0x45e4 <vTaskGetRunTimeStats+0x5b4>
    4696:	91 2c       	mov	r9, r1
    4698:	a9 2c       	mov	r10, r9
    469a:	a3 0c       	add	r10, r3
    469c:	80 91 68 14 	lds	r24, 0x1468
    46a0:	88 23       	and	r24, r24
    46a2:	09 f4       	brne	.+2      	; 0x46a6 <vTaskGetRunTimeStats+0x676>
    46a4:	2f c1       	rjmp	.+606    	; 0x4904 <vTaskGetRunTimeStats+0x8d4>
    46a6:	e0 91 69 14 	lds	r30, 0x1469
    46aa:	f0 91 6a 14 	lds	r31, 0x146A
    46ae:	22 81       	ldd	r18, Z+2	; 0x02
    46b0:	33 81       	ldd	r19, Z+3	; 0x03
    46b2:	30 93 6a 14 	sts	0x146A, r19
    46b6:	20 93 69 14 	sts	0x1469, r18
    46ba:	90 90 6d 14 	lds	r9, 0x146D
    46be:	80 90 6e 14 	lds	r8, 0x146E
    46c2:	b4 e1       	ldi	r27, 0x14	; 20
    46c4:	2b 36       	cpi	r18, 0x6B	; 107
    46c6:	3b 07       	cpc	r19, r27
    46c8:	09 f4       	brne	.+2      	; 0x46cc <vTaskGetRunTimeStats+0x69c>
    46ca:	bb c1       	rjmp	.+886    	; 0x4a42 <vTaskGetRunTimeStats+0xa12>
    46cc:	f9 01       	movw	r30, r18
    46ce:	c6 80       	ldd	r12, Z+6	; 0x06
    46d0:	d7 80       	ldd	r13, Z+7	; 0x07
    46d2:	b7 01       	movw	r22, r14
    46d4:	ff e0       	ldi	r31, 0x0F	; 15
    46d6:	af 9e       	mul	r10, r31
    46d8:	60 0d       	add	r22, r0
    46da:	71 1d       	adc	r23, r1
    46dc:	11 24       	eor	r1, r1
    46de:	b1 2c       	mov	r11, r1
    46e0:	e4 e0       	ldi	r30, 0x04	; 4
    46e2:	2e 2e       	mov	r2, r30
    46e4:	31 2c       	mov	r3, r1
    46e6:	d9 01       	movw	r26, r18
    46e8:	12 96       	adiw	r26, 0x02	; 2
    46ea:	2d 91       	ld	r18, X+
    46ec:	3c 91       	ld	r19, X
    46ee:	13 97       	sbiw	r26, 0x03	; 3
    46f0:	30 93 6a 14 	sts	0x146A, r19
    46f4:	20 93 69 14 	sts	0x1469, r18
    46f8:	b4 e1       	ldi	r27, 0x14	; 20
    46fa:	2b 36       	cpi	r18, 0x6B	; 107
    46fc:	3b 07       	cpc	r19, r27
    46fe:	09 f4       	brne	.+2      	; 0x4702 <vTaskGetRunTimeStats+0x6d2>
    4700:	d8 c0       	rjmp	.+432    	; 0x48b2 <vTaskGetRunTimeStats+0x882>
    4702:	f9 01       	movw	r30, r18
    4704:	a6 81       	ldd	r26, Z+6	; 0x06
    4706:	b7 81       	ldd	r27, Z+7	; 0x07
    4708:	cb 01       	movw	r24, r22
    470a:	ff e0       	ldi	r31, 0x0F	; 15
    470c:	bf 9e       	mul	r11, r31
    470e:	80 0d       	add	r24, r0
    4710:	91 1d       	adc	r25, r1
    4712:	11 24       	eor	r1, r1
    4714:	fc 01       	movw	r30, r24
    4716:	b1 83       	std	Z+1, r27	; 0x01
    4718:	a0 83       	st	Z, r26
    471a:	ad 01       	movw	r20, r26
    471c:	47 5e       	subi	r20, 0xE7	; 231
    471e:	5f 4f       	sbci	r21, 0xFF	; 255
    4720:	53 83       	std	Z+3, r21	; 0x03
    4722:	42 83       	std	Z+2, r20	; 0x02
    4724:	91 96       	adiw	r26, 0x21	; 33
    4726:	4c 91       	ld	r20, X
    4728:	91 97       	sbiw	r26, 0x21	; 33
    472a:	44 83       	std	Z+4, r20	; 0x04
    472c:	36 82       	std	Z+6, r3	; 0x06
    472e:	25 82       	std	Z+5, r2	; 0x05
    4730:	56 96       	adiw	r26, 0x16	; 22
    4732:	4c 91       	ld	r20, X
    4734:	56 97       	sbiw	r26, 0x16	; 22
    4736:	47 83       	std	Z+7, r20	; 0x07
    4738:	93 96       	adiw	r26, 0x23	; 35
    473a:	4c 91       	ld	r20, X
    473c:	93 97       	sbiw	r26, 0x23	; 35
    473e:	40 87       	std	Z+8, r20	; 0x08
    4740:	94 96       	adiw	r26, 0x24	; 36
    4742:	4d 90       	ld	r4, X+
    4744:	5d 90       	ld	r5, X+
    4746:	6d 90       	ld	r6, X+
    4748:	7c 90       	ld	r7, X
    474a:	97 97       	sbiw	r26, 0x27	; 39
    474c:	41 86       	std	Z+9, r4	; 0x09
    474e:	52 86       	std	Z+10, r5	; 0x0a
    4750:	63 86       	std	Z+11, r6	; 0x0b
    4752:	74 86       	std	Z+12, r7	; 0x0c
    4754:	57 96       	adiw	r26, 0x17	; 23
    4756:	ed 91       	ld	r30, X+
    4758:	fc 91       	ld	r31, X
    475a:	58 97       	sbiw	r26, 0x18	; 24
    475c:	70 80       	ld	r7, Z
    475e:	45 ea       	ldi	r20, 0xA5	; 165
    4760:	74 12       	cpse	r7, r20
    4762:	c5 c0       	rjmp	.+394    	; 0x48ee <vTaskGetRunTimeStats+0x8be>
    4764:	31 96       	adiw	r30, 0x01	; 1
    4766:	41 2c       	mov	r4, r1
    4768:	51 2c       	mov	r5, r1
    476a:	32 01       	movw	r6, r4
    476c:	5f ef       	ldi	r21, 0xFF	; 255
    476e:	45 1a       	sub	r4, r21
    4770:	55 0a       	sbc	r5, r21
    4772:	65 0a       	sbc	r6, r21
    4774:	75 0a       	sbc	r7, r21
    4776:	41 91       	ld	r20, Z+
    4778:	45 3a       	cpi	r20, 0xA5	; 165
    477a:	c1 f3       	breq	.-16     	; 0x476c <vTaskGetRunTimeStats+0x73c>
    477c:	fc 01       	movw	r30, r24
    477e:	56 86       	std	Z+14, r5	; 0x0e
    4780:	45 86       	std	Z+13, r4	; 0x0d
    4782:	b3 94       	inc	r11
    4784:	ca 16       	cp	r12, r26
    4786:	db 06       	cpc	r13, r27
    4788:	09 f0       	breq	.+2      	; 0x478c <vTaskGetRunTimeStats+0x75c>
    478a:	ad cf       	rjmp	.-166    	; 0x46e6 <vTaskGetRunTimeStats+0x6b6>
    478c:	ab 0c       	add	r10, r11
    478e:	80 91 5e 14 	lds	r24, 0x145E
    4792:	88 23       	and	r24, r24
    4794:	09 f4       	brne	.+2      	; 0x4798 <vTaskGetRunTimeStats+0x768>
    4796:	a2 c0       	rjmp	.+324    	; 0x48dc <vTaskGetRunTimeStats+0x8ac>
    4798:	e0 91 5f 14 	lds	r30, 0x145F
    479c:	f0 91 60 14 	lds	r31, 0x1460
    47a0:	22 81       	ldd	r18, Z+2	; 0x02
    47a2:	33 81       	ldd	r19, Z+3	; 0x03
    47a4:	30 93 60 14 	sts	0x1460, r19
    47a8:	20 93 5f 14 	sts	0x145F, r18
    47ac:	20 90 63 14 	lds	r2, 0x1463
    47b0:	30 90 64 14 	lds	r3, 0x1464
    47b4:	f4 e1       	ldi	r31, 0x14	; 20
    47b6:	21 36       	cpi	r18, 0x61	; 97
    47b8:	3f 07       	cpc	r19, r31
    47ba:	09 f4       	brne	.+2      	; 0x47be <vTaskGetRunTimeStats+0x78e>
    47bc:	31 c1       	rjmp	.+610    	; 0x4a20 <vTaskGetRunTimeStats+0x9f0>
    47be:	d9 01       	movw	r26, r18
    47c0:	16 96       	adiw	r26, 0x06	; 6
    47c2:	cd 90       	ld	r12, X+
    47c4:	dc 90       	ld	r13, X
    47c6:	17 97       	sbiw	r26, 0x07	; 7
    47c8:	b7 01       	movw	r22, r14
    47ca:	bf e0       	ldi	r27, 0x0F	; 15
    47cc:	ab 9e       	mul	r10, r27
    47ce:	60 0d       	add	r22, r0
    47d0:	71 1d       	adc	r23, r1
    47d2:	11 24       	eor	r1, r1
    47d4:	b1 2c       	mov	r11, r1
    47d6:	52 e0       	ldi	r21, 0x02	; 2
    47d8:	85 2e       	mov	r8, r21
    47da:	91 2c       	mov	r9, r1
    47dc:	f9 01       	movw	r30, r18
    47de:	22 81       	ldd	r18, Z+2	; 0x02
    47e0:	33 81       	ldd	r19, Z+3	; 0x03
    47e2:	30 93 60 14 	sts	0x1460, r19
    47e6:	20 93 5f 14 	sts	0x145F, r18
    47ea:	f4 e1       	ldi	r31, 0x14	; 20
    47ec:	21 36       	cpi	r18, 0x61	; 97
    47ee:	3f 07       	cpc	r19, r31
    47f0:	09 f4       	brne	.+2      	; 0x47f4 <vTaskGetRunTimeStats+0x7c4>
    47f2:	59 c0       	rjmp	.+178    	; 0x48a6 <vTaskGetRunTimeStats+0x876>
    47f4:	f9 01       	movw	r30, r18
    47f6:	a6 81       	ldd	r26, Z+6	; 0x06
    47f8:	b7 81       	ldd	r27, Z+7	; 0x07
    47fa:	cb 01       	movw	r24, r22
    47fc:	ff e0       	ldi	r31, 0x0F	; 15
    47fe:	bf 9e       	mul	r11, r31
    4800:	80 0d       	add	r24, r0
    4802:	91 1d       	adc	r25, r1
    4804:	11 24       	eor	r1, r1
    4806:	fc 01       	movw	r30, r24
    4808:	b1 83       	std	Z+1, r27	; 0x01
    480a:	a0 83       	st	Z, r26
    480c:	ad 01       	movw	r20, r26
    480e:	47 5e       	subi	r20, 0xE7	; 231
    4810:	5f 4f       	sbci	r21, 0xFF	; 255
    4812:	53 83       	std	Z+3, r21	; 0x03
    4814:	42 83       	std	Z+2, r20	; 0x02
    4816:	91 96       	adiw	r26, 0x21	; 33
    4818:	4c 91       	ld	r20, X
    481a:	91 97       	sbiw	r26, 0x21	; 33
    481c:	44 83       	std	Z+4, r20	; 0x04
    481e:	43 e0       	ldi	r20, 0x03	; 3
    4820:	50 e0       	ldi	r21, 0x00	; 0
    4822:	56 83       	std	Z+6, r21	; 0x06
    4824:	45 83       	std	Z+5, r20	; 0x05
    4826:	56 96       	adiw	r26, 0x16	; 22
    4828:	4c 91       	ld	r20, X
    482a:	56 97       	sbiw	r26, 0x16	; 22
    482c:	47 83       	std	Z+7, r20	; 0x07
    482e:	54 96       	adiw	r26, 0x14	; 20
    4830:	ed 91       	ld	r30, X+
    4832:	fc 91       	ld	r31, X
    4834:	55 97       	sbiw	r26, 0x15	; 21
    4836:	ef 2b       	or	r30, r31
    4838:	19 f0       	breq	.+6      	; 0x4840 <vTaskGetRunTimeStats+0x810>
    483a:	fc 01       	movw	r30, r24
    483c:	96 82       	std	Z+6, r9	; 0x06
    483e:	85 82       	std	Z+5, r8	; 0x05
    4840:	93 96       	adiw	r26, 0x23	; 35
    4842:	4c 91       	ld	r20, X
    4844:	93 97       	sbiw	r26, 0x23	; 35
    4846:	fc 01       	movw	r30, r24
    4848:	40 87       	std	Z+8, r20	; 0x08
    484a:	94 96       	adiw	r26, 0x24	; 36
    484c:	4d 90       	ld	r4, X+
    484e:	5d 90       	ld	r5, X+
    4850:	6d 90       	ld	r6, X+
    4852:	7c 90       	ld	r7, X
    4854:	97 97       	sbiw	r26, 0x27	; 39
    4856:	41 86       	std	Z+9, r4	; 0x09
    4858:	52 86       	std	Z+10, r5	; 0x0a
    485a:	63 86       	std	Z+11, r6	; 0x0b
    485c:	74 86       	std	Z+12, r7	; 0x0c
    485e:	57 96       	adiw	r26, 0x17	; 23
    4860:	ed 91       	ld	r30, X+
    4862:	fc 91       	ld	r31, X
    4864:	58 97       	sbiw	r26, 0x18	; 24
    4866:	70 80       	ld	r7, Z
    4868:	45 ea       	ldi	r20, 0xA5	; 165
    486a:	74 12       	cpse	r7, r20
    486c:	2c c0       	rjmp	.+88     	; 0x48c6 <vTaskGetRunTimeStats+0x896>
    486e:	31 96       	adiw	r30, 0x01	; 1
    4870:	41 2c       	mov	r4, r1
    4872:	51 2c       	mov	r5, r1
    4874:	32 01       	movw	r6, r4
    4876:	5f ef       	ldi	r21, 0xFF	; 255
    4878:	45 1a       	sub	r4, r21
    487a:	55 0a       	sbc	r5, r21
    487c:	65 0a       	sbc	r6, r21
    487e:	75 0a       	sbc	r7, r21
    4880:	41 91       	ld	r20, Z+
    4882:	45 3a       	cpi	r20, 0xA5	; 165
    4884:	c1 f3       	breq	.-16     	; 0x4876 <vTaskGetRunTimeStats+0x846>
    4886:	fc 01       	movw	r30, r24
    4888:	56 86       	std	Z+14, r5	; 0x0e
    488a:	45 86       	std	Z+13, r4	; 0x0d
    488c:	b3 94       	inc	r11
    488e:	ca 16       	cp	r12, r26
    4890:	db 06       	cpc	r13, r27
    4892:	09 f0       	breq	.+2      	; 0x4896 <vTaskGetRunTimeStats+0x866>
    4894:	a3 cf       	rjmp	.-186    	; 0x47dc <vTaskGetRunTimeStats+0x7ac>
    4896:	ba 0c       	add	r11, r10
    4898:	40 90 84 00 	lds	r4, 0x0084
    489c:	50 90 85 00 	lds	r5, 0x0085
    48a0:	61 2c       	mov	r6, r1
    48a2:	71 2c       	mov	r7, r1
    48a4:	7d cc       	rjmp	.-1798   	; 0x41a0 <vTaskGetRunTimeStats+0x170>
    48a6:	20 92 5f 14 	sts	0x145F, r2
    48aa:	30 92 60 14 	sts	0x1460, r3
    48ae:	91 01       	movw	r18, r2
    48b0:	a1 cf       	rjmp	.-190    	; 0x47f4 <vTaskGetRunTimeStats+0x7c4>
    48b2:	90 92 69 14 	sts	0x1469, r9
    48b6:	80 92 6a 14 	sts	0x146A, r8
    48ba:	29 2d       	mov	r18, r9
    48bc:	38 2d       	mov	r19, r8
    48be:	21 cf       	rjmp	.-446    	; 0x4702 <vTaskGetRunTimeStats+0x6d2>
    48c0:	41 2c       	mov	r4, r1
    48c2:	51 2c       	mov	r5, r1
    48c4:	2d ce       	rjmp	.-934    	; 0x4520 <vTaskGetRunTimeStats+0x4f0>
    48c6:	41 2c       	mov	r4, r1
    48c8:	51 2c       	mov	r5, r1
    48ca:	fc 01       	movw	r30, r24
    48cc:	56 86       	std	Z+14, r5	; 0x0e
    48ce:	45 86       	std	Z+13, r4	; 0x0d
    48d0:	b3 94       	inc	r11
    48d2:	ca 16       	cp	r12, r26
    48d4:	db 06       	cpc	r13, r27
    48d6:	09 f0       	breq	.+2      	; 0x48da <vTaskGetRunTimeStats+0x8aa>
    48d8:	81 cf       	rjmp	.-254    	; 0x47dc <vTaskGetRunTimeStats+0x7ac>
    48da:	dd cf       	rjmp	.-70     	; 0x4896 <vTaskGetRunTimeStats+0x866>
    48dc:	b1 2c       	mov	r11, r1
    48de:	ba 0c       	add	r11, r10
    48e0:	40 90 84 00 	lds	r4, 0x0084
    48e4:	50 90 85 00 	lds	r5, 0x0085
    48e8:	61 2c       	mov	r6, r1
    48ea:	71 2c       	mov	r7, r1
    48ec:	59 cc       	rjmp	.-1870   	; 0x41a0 <vTaskGetRunTimeStats+0x170>
    48ee:	41 2c       	mov	r4, r1
    48f0:	51 2c       	mov	r5, r1
    48f2:	fc 01       	movw	r30, r24
    48f4:	56 86       	std	Z+14, r5	; 0x0e
    48f6:	45 86       	std	Z+13, r4	; 0x0d
    48f8:	b3 94       	inc	r11
    48fa:	ca 16       	cp	r12, r26
    48fc:	db 06       	cpc	r13, r27
    48fe:	09 f0       	breq	.+2      	; 0x4902 <vTaskGetRunTimeStats+0x8d2>
    4900:	f2 ce       	rjmp	.-540    	; 0x46e6 <vTaskGetRunTimeStats+0x6b6>
    4902:	44 cf       	rjmp	.-376    	; 0x478c <vTaskGetRunTimeStats+0x75c>
    4904:	b1 2c       	mov	r11, r1
    4906:	42 cf       	rjmp	.-380    	; 0x478c <vTaskGetRunTimeStats+0x75c>
    4908:	41 2c       	mov	r4, r1
    490a:	51 2c       	mov	r5, r1
    490c:	a8 ce       	rjmp	.-688    	; 0x465e <vTaskGetRunTimeStats+0x62e>
    490e:	a0 92 57 14 	sts	0x1457, r10
    4912:	8e cc       	rjmp	.-1764   	; 0x4230 <vTaskGetRunTimeStats+0x200>
    4914:	e0 91 7c 14 	lds	r30, 0x147C
    4918:	f0 91 7d 14 	lds	r31, 0x147D
    491c:	80 81       	ld	r24, Z
    491e:	88 23       	and	r24, r24
    4920:	09 f4       	brne	.+2      	; 0x4924 <vTaskGetRunTimeStats+0x8f4>
    4922:	4e c0       	rjmp	.+156    	; 0x49c0 <vTaskGetRunTimeStats+0x990>
    4924:	e0 91 7c 14 	lds	r30, 0x147C
    4928:	f0 91 7d 14 	lds	r31, 0x147D
    492c:	05 80       	ldd	r0, Z+5	; 0x05
    492e:	f6 81       	ldd	r31, Z+6	; 0x06
    4930:	e0 2d       	mov	r30, r0
    4932:	c6 80       	ldd	r12, Z+6	; 0x06
    4934:	d7 80       	ldd	r13, Z+7	; 0x07
    4936:	d6 01       	movw	r26, r12
    4938:	12 96       	adiw	r26, 0x02	; 2
    493a:	8d 91       	ld	r24, X+
    493c:	9c 91       	ld	r25, X
    493e:	13 97       	sbiw	r26, 0x03	; 3
    4940:	88 16       	cp	r8, r24
    4942:	99 06       	cpc	r9, r25
    4944:	08 f4       	brcc	.+2      	; 0x4948 <vTaskGetRunTimeStats+0x918>
    4946:	50 c0       	rjmp	.+160    	; 0x49e8 <vTaskGetRunTimeStats+0x9b8>
    4948:	16 01       	movw	r2, r12
    494a:	b2 e0       	ldi	r27, 0x02	; 2
    494c:	2b 0e       	add	r2, r27
    494e:	31 1c       	adc	r3, r1
    4950:	c1 01       	movw	r24, r2
    4952:	0e 94 38 27 	call	0x4e70	; 0x4e70 <uxListRemove>
    4956:	f6 01       	movw	r30, r12
    4958:	84 89       	ldd	r24, Z+20	; 0x14
    495a:	95 89       	ldd	r25, Z+21	; 0x15
    495c:	89 2b       	or	r24, r25
    495e:	21 f0       	breq	.+8      	; 0x4968 <vTaskGetRunTimeStats+0x938>
    4960:	c6 01       	movw	r24, r12
    4962:	0c 96       	adiw	r24, 0x0c	; 12
    4964:	0e 94 38 27 	call	0x4e70	; 0x4e70 <uxListRemove>
    4968:	d6 01       	movw	r26, r12
    496a:	56 96       	adiw	r26, 0x16	; 22
    496c:	2c 91       	ld	r18, X
    496e:	80 91 5a 14 	lds	r24, 0x145A
    4972:	82 17       	cp	r24, r18
    4974:	10 f4       	brcc	.+4      	; 0x497a <vTaskGetRunTimeStats+0x94a>
    4976:	20 93 5a 14 	sts	0x145A, r18
    497a:	30 e0       	ldi	r19, 0x00	; 0
    497c:	c9 01       	movw	r24, r18
    497e:	88 0f       	add	r24, r24
    4980:	99 1f       	adc	r25, r25
    4982:	88 0f       	add	r24, r24
    4984:	99 1f       	adc	r25, r25
    4986:	88 0f       	add	r24, r24
    4988:	99 1f       	adc	r25, r25
    498a:	82 0f       	add	r24, r18
    498c:	93 1f       	adc	r25, r19
    498e:	b1 01       	movw	r22, r2
    4990:	80 57       	subi	r24, 0x70	; 112
    4992:	9b 4e       	sbci	r25, 0xEB	; 235
    4994:	0e 94 e6 26 	call	0x4dcc	; 0x4dcc <vListInsertEnd>
    4998:	e0 91 b4 14 	lds	r30, 0x14B4
    499c:	f0 91 b5 14 	lds	r31, 0x14B5
    49a0:	d6 01       	movw	r26, r12
    49a2:	56 96       	adiw	r26, 0x16	; 22
    49a4:	9c 91       	ld	r25, X
    49a6:	86 89       	ldd	r24, Z+22	; 0x16
    49a8:	98 17       	cp	r25, r24
    49aa:	08 f4       	brcc	.+2      	; 0x49ae <vTaskGetRunTimeStats+0x97e>
    49ac:	b3 cf       	rjmp	.-154    	; 0x4914 <vTaskGetRunTimeStats+0x8e4>
    49ae:	21 e0       	ldi	r18, 0x01	; 1
    49b0:	2b 83       	std	Y+3, r18	; 0x03
    49b2:	e0 91 7c 14 	lds	r30, 0x147C
    49b6:	f0 91 7d 14 	lds	r31, 0x147D
    49ba:	80 81       	ld	r24, Z
    49bc:	81 11       	cpse	r24, r1
    49be:	b2 cf       	rjmp	.-156    	; 0x4924 <vTaskGetRunTimeStats+0x8f4>
    49c0:	4f ef       	ldi	r20, 0xFF	; 255
    49c2:	5f ef       	ldi	r21, 0xFF	; 255
    49c4:	50 93 05 02 	sts	0x0205, r21
    49c8:	40 93 04 02 	sts	0x0204, r20
    49cc:	80 cc       	rjmp	.-1792   	; 0x42ce <vTaskGetRunTimeStats+0x29e>
    49ce:	80 91 58 14 	lds	r24, 0x1458
    49d2:	8f 5f       	subi	r24, 0xFF	; 255
    49d4:	80 93 58 14 	sts	0x1458, r24
    49d8:	80 91 57 14 	lds	r24, 0x1457
    49dc:	88 23       	and	r24, r24
    49de:	09 f4       	brne	.+2      	; 0x49e2 <vTaskGetRunTimeStats+0x9b2>
    49e0:	94 cc       	rjmp	.-1752   	; 0x430a <vTaskGetRunTimeStats+0x2da>
    49e2:	a0 92 57 14 	sts	0x1457, r10
    49e6:	91 cc       	rjmp	.-1758   	; 0x430a <vTaskGetRunTimeStats+0x2da>
    49e8:	90 93 05 02 	sts	0x0205, r25
    49ec:	80 93 04 02 	sts	0x0204, r24
    49f0:	6e cc       	rjmp	.-1828   	; 0x42ce <vTaskGetRunTimeStats+0x29e>
    49f2:	e0 91 7c 14 	lds	r30, 0x147C
    49f6:	f0 91 7d 14 	lds	r31, 0x147D
    49fa:	05 80       	ldd	r0, Z+5	; 0x05
    49fc:	f6 81       	ldd	r31, Z+6	; 0x06
    49fe:	e0 2d       	mov	r30, r0
    4a00:	06 80       	ldd	r0, Z+6	; 0x06
    4a02:	f7 81       	ldd	r31, Z+7	; 0x07
    4a04:	e0 2d       	mov	r30, r0
    4a06:	82 81       	ldd	r24, Z+2	; 0x02
    4a08:	93 81       	ldd	r25, Z+3	; 0x03
    4a0a:	90 93 05 02 	sts	0x0205, r25
    4a0e:	80 93 04 02 	sts	0x0204, r24
    4a12:	54 cc       	rjmp	.-1880   	; 0x42bc <vTaskGetRunTimeStats+0x28c>
    4a14:	da 01       	movw	r26, r20
    4a16:	12 96       	adiw	r26, 0x02	; 2
    4a18:	ed 91       	ld	r30, X+
    4a1a:	fc 91       	ld	r31, X
    4a1c:	13 97       	sbiw	r26, 0x03	; 3
    4a1e:	56 cb       	rjmp	.-2388   	; 0x40cc <vTaskGetRunTimeStats+0x9c>
    4a20:	91 01       	movw	r18, r2
    4a22:	cd ce       	rjmp	.-614    	; 0x47be <vTaskGetRunTimeStats+0x78e>
    4a24:	0e 94 f7 25 	call	0x4bee	; 0x4bee <vPortYield>
    4a28:	7e cc       	rjmp	.-1796   	; 0x4326 <vTaskGetRunTimeStats+0x2f6>
    4a2a:	da 01       	movw	r26, r20
    4a2c:	12 96       	adiw	r26, 0x02	; 2
    4a2e:	ed 91       	ld	r30, X+
    4a30:	fc 91       	ld	r31, X
    4a32:	13 97       	sbiw	r26, 0x03	; 3
    4a34:	20 cd       	rjmp	.-1472   	; 0x4476 <vTaskGetRunTimeStats+0x446>
    4a36:	da 01       	movw	r26, r20
    4a38:	12 96       	adiw	r26, 0x02	; 2
    4a3a:	ed 91       	ld	r30, X+
    4a3c:	fc 91       	ld	r31, X
    4a3e:	13 97       	sbiw	r26, 0x03	; 3
    4a40:	b9 cd       	rjmp	.-1166   	; 0x45b4 <vTaskGetRunTimeStats+0x584>
    4a42:	29 2d       	mov	r18, r9
    4a44:	38 2d       	mov	r19, r8
    4a46:	42 ce       	rjmp	.-892    	; 0x46cc <vTaskGetRunTimeStats+0x69c>

00004a48 <uxTaskResetEventItemValue>:
    4a48:	e0 91 b4 14 	lds	r30, 0x14B4
    4a4c:	f0 91 b5 14 	lds	r31, 0x14B5
    4a50:	84 85       	ldd	r24, Z+12	; 0x0c
    4a52:	95 85       	ldd	r25, Z+13	; 0x0d
    4a54:	e0 91 b4 14 	lds	r30, 0x14B4
    4a58:	f0 91 b5 14 	lds	r31, 0x14B5
    4a5c:	a0 91 b4 14 	lds	r26, 0x14B4
    4a60:	b0 91 b5 14 	lds	r27, 0x14B5
    4a64:	56 96       	adiw	r26, 0x16	; 22
    4a66:	4c 91       	ld	r20, X
    4a68:	24 e0       	ldi	r18, 0x04	; 4
    4a6a:	30 e0       	ldi	r19, 0x00	; 0
    4a6c:	24 1b       	sub	r18, r20
    4a6e:	31 09       	sbc	r19, r1
    4a70:	35 87       	std	Z+13, r19	; 0x0d
    4a72:	24 87       	std	Z+12, r18	; 0x0c
    4a74:	08 95       	ret

00004a76 <pxPortInitialiseStack>:
    4a76:	31 e1       	ldi	r19, 0x11	; 17
    4a78:	fc 01       	movw	r30, r24
    4a7a:	30 83       	st	Z, r19
    4a7c:	31 97       	sbiw	r30, 0x01	; 1
    4a7e:	22 e2       	ldi	r18, 0x22	; 34
    4a80:	20 83       	st	Z, r18
    4a82:	31 97       	sbiw	r30, 0x01	; 1
    4a84:	a3 e3       	ldi	r26, 0x33	; 51
    4a86:	a0 83       	st	Z, r26
    4a88:	31 97       	sbiw	r30, 0x01	; 1
    4a8a:	60 83       	st	Z, r22
    4a8c:	31 97       	sbiw	r30, 0x01	; 1
    4a8e:	70 83       	st	Z, r23
    4a90:	31 97       	sbiw	r30, 0x01	; 1
    4a92:	10 82       	st	Z, r1
    4a94:	31 97       	sbiw	r30, 0x01	; 1
    4a96:	10 82       	st	Z, r1
    4a98:	31 97       	sbiw	r30, 0x01	; 1
    4a9a:	60 e8       	ldi	r22, 0x80	; 128
    4a9c:	60 83       	st	Z, r22
    4a9e:	31 97       	sbiw	r30, 0x01	; 1
    4aa0:	10 82       	st	Z, r1
    4aa2:	31 97       	sbiw	r30, 0x01	; 1
    4aa4:	10 82       	st	Z, r1
    4aa6:	31 97       	sbiw	r30, 0x01	; 1
    4aa8:	10 82       	st	Z, r1
    4aaa:	31 97       	sbiw	r30, 0x01	; 1
    4aac:	62 e0       	ldi	r22, 0x02	; 2
    4aae:	60 83       	st	Z, r22
    4ab0:	31 97       	sbiw	r30, 0x01	; 1
    4ab2:	63 e0       	ldi	r22, 0x03	; 3
    4ab4:	60 83       	st	Z, r22
    4ab6:	31 97       	sbiw	r30, 0x01	; 1
    4ab8:	64 e0       	ldi	r22, 0x04	; 4
    4aba:	60 83       	st	Z, r22
    4abc:	31 97       	sbiw	r30, 0x01	; 1
    4abe:	65 e0       	ldi	r22, 0x05	; 5
    4ac0:	60 83       	st	Z, r22
    4ac2:	31 97       	sbiw	r30, 0x01	; 1
    4ac4:	66 e0       	ldi	r22, 0x06	; 6
    4ac6:	60 83       	st	Z, r22
    4ac8:	31 97       	sbiw	r30, 0x01	; 1
    4aca:	67 e0       	ldi	r22, 0x07	; 7
    4acc:	60 83       	st	Z, r22
    4ace:	31 97       	sbiw	r30, 0x01	; 1
    4ad0:	68 e0       	ldi	r22, 0x08	; 8
    4ad2:	60 83       	st	Z, r22
    4ad4:	31 97       	sbiw	r30, 0x01	; 1
    4ad6:	69 e0       	ldi	r22, 0x09	; 9
    4ad8:	60 83       	st	Z, r22
    4ada:	31 97       	sbiw	r30, 0x01	; 1
    4adc:	60 e1       	ldi	r22, 0x10	; 16
    4ade:	60 83       	st	Z, r22
    4ae0:	31 97       	sbiw	r30, 0x01	; 1
    4ae2:	30 83       	st	Z, r19
    4ae4:	31 97       	sbiw	r30, 0x01	; 1
    4ae6:	32 e1       	ldi	r19, 0x12	; 18
    4ae8:	30 83       	st	Z, r19
    4aea:	31 97       	sbiw	r30, 0x01	; 1
    4aec:	33 e1       	ldi	r19, 0x13	; 19
    4aee:	30 83       	st	Z, r19
    4af0:	31 97       	sbiw	r30, 0x01	; 1
    4af2:	34 e1       	ldi	r19, 0x14	; 20
    4af4:	30 83       	st	Z, r19
    4af6:	31 97       	sbiw	r30, 0x01	; 1
    4af8:	35 e1       	ldi	r19, 0x15	; 21
    4afa:	30 83       	st	Z, r19
    4afc:	31 97       	sbiw	r30, 0x01	; 1
    4afe:	36 e1       	ldi	r19, 0x16	; 22
    4b00:	30 83       	st	Z, r19
    4b02:	31 97       	sbiw	r30, 0x01	; 1
    4b04:	37 e1       	ldi	r19, 0x17	; 23
    4b06:	30 83       	st	Z, r19
    4b08:	31 97       	sbiw	r30, 0x01	; 1
    4b0a:	38 e1       	ldi	r19, 0x18	; 24
    4b0c:	30 83       	st	Z, r19
    4b0e:	31 97       	sbiw	r30, 0x01	; 1
    4b10:	39 e1       	ldi	r19, 0x19	; 25
    4b12:	30 83       	st	Z, r19
    4b14:	31 97       	sbiw	r30, 0x01	; 1
    4b16:	30 e2       	ldi	r19, 0x20	; 32
    4b18:	30 83       	st	Z, r19
    4b1a:	31 97       	sbiw	r30, 0x01	; 1
    4b1c:	31 e2       	ldi	r19, 0x21	; 33
    4b1e:	30 83       	st	Z, r19
    4b20:	31 97       	sbiw	r30, 0x01	; 1
    4b22:	20 83       	st	Z, r18
    4b24:	31 97       	sbiw	r30, 0x01	; 1
    4b26:	23 e2       	ldi	r18, 0x23	; 35
    4b28:	20 83       	st	Z, r18
    4b2a:	31 97       	sbiw	r30, 0x01	; 1
    4b2c:	40 83       	st	Z, r20
    4b2e:	31 97       	sbiw	r30, 0x01	; 1
    4b30:	50 83       	st	Z, r21
    4b32:	31 97       	sbiw	r30, 0x01	; 1
    4b34:	26 e2       	ldi	r18, 0x26	; 38
    4b36:	20 83       	st	Z, r18
    4b38:	31 97       	sbiw	r30, 0x01	; 1
    4b3a:	27 e2       	ldi	r18, 0x27	; 39
    4b3c:	20 83       	st	Z, r18
    4b3e:	31 97       	sbiw	r30, 0x01	; 1
    4b40:	28 e2       	ldi	r18, 0x28	; 40
    4b42:	20 83       	st	Z, r18
    4b44:	31 97       	sbiw	r30, 0x01	; 1
    4b46:	29 e2       	ldi	r18, 0x29	; 41
    4b48:	20 83       	st	Z, r18
    4b4a:	31 97       	sbiw	r30, 0x01	; 1
    4b4c:	20 e3       	ldi	r18, 0x30	; 48
    4b4e:	20 83       	st	Z, r18
    4b50:	31 97       	sbiw	r30, 0x01	; 1
    4b52:	21 e3       	ldi	r18, 0x31	; 49
    4b54:	20 83       	st	Z, r18
    4b56:	89 97       	sbiw	r24, 0x29	; 41
    4b58:	08 95       	ret

00004b5a <xPortStartScheduler>:
    4b5a:	84 ef       	ldi	r24, 0xF4	; 244
    4b5c:	91 e0       	ldi	r25, 0x01	; 1
    4b5e:	90 93 b9 14 	sts	0x14B9, r25
    4b62:	80 93 b8 14 	sts	0x14B8, r24
    4b66:	90 93 b7 14 	sts	0x14B7, r25
    4b6a:	80 93 b6 14 	sts	0x14B6, r24
    4b6e:	81 e0       	ldi	r24, 0x01	; 1
    4b70:	80 93 99 00 	sts	0x0099, r24
    4b74:	83 ef       	ldi	r24, 0xF3	; 243
    4b76:	80 93 98 00 	sts	0x0098, r24
    4b7a:	8b e0       	ldi	r24, 0x0B	; 11
    4b7c:	80 93 91 00 	sts	0x0091, r24
    4b80:	e1 e7       	ldi	r30, 0x71	; 113
    4b82:	f0 e0       	ldi	r31, 0x00	; 0
    4b84:	80 81       	ld	r24, Z
    4b86:	82 60       	ori	r24, 0x02	; 2
    4b88:	80 83       	st	Z, r24
    4b8a:	a0 91 b4 14 	lds	r26, 0x14B4
    4b8e:	b0 91 b5 14 	lds	r27, 0x14B5
    4b92:	cd 91       	ld	r28, X+
    4b94:	cd bf       	out	0x3d, r28	; 61
    4b96:	dd 91       	ld	r29, X+
    4b98:	de bf       	out	0x3e, r29	; 62
    4b9a:	ff 91       	pop	r31
    4b9c:	ef 91       	pop	r30
    4b9e:	df 91       	pop	r29
    4ba0:	cf 91       	pop	r28
    4ba2:	bf 91       	pop	r27
    4ba4:	af 91       	pop	r26
    4ba6:	9f 91       	pop	r25
    4ba8:	8f 91       	pop	r24
    4baa:	7f 91       	pop	r23
    4bac:	6f 91       	pop	r22
    4bae:	5f 91       	pop	r21
    4bb0:	4f 91       	pop	r20
    4bb2:	3f 91       	pop	r19
    4bb4:	2f 91       	pop	r18
    4bb6:	1f 91       	pop	r17
    4bb8:	0f 91       	pop	r16
    4bba:	ff 90       	pop	r15
    4bbc:	ef 90       	pop	r14
    4bbe:	df 90       	pop	r13
    4bc0:	cf 90       	pop	r12
    4bc2:	bf 90       	pop	r11
    4bc4:	af 90       	pop	r10
    4bc6:	9f 90       	pop	r9
    4bc8:	8f 90       	pop	r8
    4bca:	7f 90       	pop	r7
    4bcc:	6f 90       	pop	r6
    4bce:	5f 90       	pop	r5
    4bd0:	4f 90       	pop	r4
    4bd2:	3f 90       	pop	r3
    4bd4:	2f 90       	pop	r2
    4bd6:	1f 90       	pop	r1
    4bd8:	0f 90       	pop	r0
    4bda:	0c be       	out	0x3c, r0	; 60
    4bdc:	0f 90       	pop	r0
    4bde:	0b be       	out	0x3b, r0	; 59
    4be0:	0f 90       	pop	r0
    4be2:	0f be       	out	0x3f, r0	; 63
    4be4:	0f 90       	pop	r0
    4be6:	08 95       	ret
    4be8:	81 e0       	ldi	r24, 0x01	; 1
    4bea:	08 95       	ret

00004bec <vPortEndScheduler>:
    4bec:	08 95       	ret

00004bee <vPortYield>:
    4bee:	0f 92       	push	r0
    4bf0:	0f b6       	in	r0, 0x3f	; 63
    4bf2:	f8 94       	cli
    4bf4:	0f 92       	push	r0
    4bf6:	0b b6       	in	r0, 0x3b	; 59
    4bf8:	0f 92       	push	r0
    4bfa:	0c b6       	in	r0, 0x3c	; 60
    4bfc:	0f 92       	push	r0
    4bfe:	1f 92       	push	r1
    4c00:	11 24       	eor	r1, r1
    4c02:	2f 92       	push	r2
    4c04:	3f 92       	push	r3
    4c06:	4f 92       	push	r4
    4c08:	5f 92       	push	r5
    4c0a:	6f 92       	push	r6
    4c0c:	7f 92       	push	r7
    4c0e:	8f 92       	push	r8
    4c10:	9f 92       	push	r9
    4c12:	af 92       	push	r10
    4c14:	bf 92       	push	r11
    4c16:	cf 92       	push	r12
    4c18:	df 92       	push	r13
    4c1a:	ef 92       	push	r14
    4c1c:	ff 92       	push	r15
    4c1e:	0f 93       	push	r16
    4c20:	1f 93       	push	r17
    4c22:	2f 93       	push	r18
    4c24:	3f 93       	push	r19
    4c26:	4f 93       	push	r20
    4c28:	5f 93       	push	r21
    4c2a:	6f 93       	push	r22
    4c2c:	7f 93       	push	r23
    4c2e:	8f 93       	push	r24
    4c30:	9f 93       	push	r25
    4c32:	af 93       	push	r26
    4c34:	bf 93       	push	r27
    4c36:	cf 93       	push	r28
    4c38:	df 93       	push	r29
    4c3a:	ef 93       	push	r30
    4c3c:	ff 93       	push	r31
    4c3e:	a0 91 b4 14 	lds	r26, 0x14B4
    4c42:	b0 91 b5 14 	lds	r27, 0x14B5
    4c46:	0d b6       	in	r0, 0x3d	; 61
    4c48:	0d 92       	st	X+, r0
    4c4a:	0e b6       	in	r0, 0x3e	; 62
    4c4c:	0d 92       	st	X+, r0
    4c4e:	0e 94 2c 18 	call	0x3058	; 0x3058 <vTaskSwitchContext>
    4c52:	a0 91 b4 14 	lds	r26, 0x14B4
    4c56:	b0 91 b5 14 	lds	r27, 0x14B5
    4c5a:	cd 91       	ld	r28, X+
    4c5c:	cd bf       	out	0x3d, r28	; 61
    4c5e:	dd 91       	ld	r29, X+
    4c60:	de bf       	out	0x3e, r29	; 62
    4c62:	ff 91       	pop	r31
    4c64:	ef 91       	pop	r30
    4c66:	df 91       	pop	r29
    4c68:	cf 91       	pop	r28
    4c6a:	bf 91       	pop	r27
    4c6c:	af 91       	pop	r26
    4c6e:	9f 91       	pop	r25
    4c70:	8f 91       	pop	r24
    4c72:	7f 91       	pop	r23
    4c74:	6f 91       	pop	r22
    4c76:	5f 91       	pop	r21
    4c78:	4f 91       	pop	r20
    4c7a:	3f 91       	pop	r19
    4c7c:	2f 91       	pop	r18
    4c7e:	1f 91       	pop	r17
    4c80:	0f 91       	pop	r16
    4c82:	ff 90       	pop	r15
    4c84:	ef 90       	pop	r14
    4c86:	df 90       	pop	r13
    4c88:	cf 90       	pop	r12
    4c8a:	bf 90       	pop	r11
    4c8c:	af 90       	pop	r10
    4c8e:	9f 90       	pop	r9
    4c90:	8f 90       	pop	r8
    4c92:	7f 90       	pop	r7
    4c94:	6f 90       	pop	r6
    4c96:	5f 90       	pop	r5
    4c98:	4f 90       	pop	r4
    4c9a:	3f 90       	pop	r3
    4c9c:	2f 90       	pop	r2
    4c9e:	1f 90       	pop	r1
    4ca0:	0f 90       	pop	r0
    4ca2:	0c be       	out	0x3c, r0	; 60
    4ca4:	0f 90       	pop	r0
    4ca6:	0b be       	out	0x3b, r0	; 59
    4ca8:	0f 90       	pop	r0
    4caa:	0f be       	out	0x3f, r0	; 63
    4cac:	0f 90       	pop	r0
    4cae:	08 95       	ret

00004cb0 <vPortYieldFromTick>:
    4cb0:	0f 92       	push	r0
    4cb2:	0f b6       	in	r0, 0x3f	; 63
    4cb4:	f8 94       	cli
    4cb6:	0f 92       	push	r0
    4cb8:	0b b6       	in	r0, 0x3b	; 59
    4cba:	0f 92       	push	r0
    4cbc:	0c b6       	in	r0, 0x3c	; 60
    4cbe:	0f 92       	push	r0
    4cc0:	1f 92       	push	r1
    4cc2:	11 24       	eor	r1, r1
    4cc4:	2f 92       	push	r2
    4cc6:	3f 92       	push	r3
    4cc8:	4f 92       	push	r4
    4cca:	5f 92       	push	r5
    4ccc:	6f 92       	push	r6
    4cce:	7f 92       	push	r7
    4cd0:	8f 92       	push	r8
    4cd2:	9f 92       	push	r9
    4cd4:	af 92       	push	r10
    4cd6:	bf 92       	push	r11
    4cd8:	cf 92       	push	r12
    4cda:	df 92       	push	r13
    4cdc:	ef 92       	push	r14
    4cde:	ff 92       	push	r15
    4ce0:	0f 93       	push	r16
    4ce2:	1f 93       	push	r17
    4ce4:	2f 93       	push	r18
    4ce6:	3f 93       	push	r19
    4ce8:	4f 93       	push	r20
    4cea:	5f 93       	push	r21
    4cec:	6f 93       	push	r22
    4cee:	7f 93       	push	r23
    4cf0:	8f 93       	push	r24
    4cf2:	9f 93       	push	r25
    4cf4:	af 93       	push	r26
    4cf6:	bf 93       	push	r27
    4cf8:	cf 93       	push	r28
    4cfa:	df 93       	push	r29
    4cfc:	ef 93       	push	r30
    4cfe:	ff 93       	push	r31
    4d00:	a0 91 b4 14 	lds	r26, 0x14B4
    4d04:	b0 91 b5 14 	lds	r27, 0x14B5
    4d08:	0d b6       	in	r0, 0x3d	; 61
    4d0a:	0d 92       	st	X+, r0
    4d0c:	0e b6       	in	r0, 0x3e	; 62
    4d0e:	0d 92       	st	X+, r0
    4d10:	80 91 b6 14 	lds	r24, 0x14B6
    4d14:	90 91 b7 14 	lds	r25, 0x14B7
    4d18:	01 97       	sbiw	r24, 0x01	; 1
    4d1a:	90 93 b7 14 	sts	0x14B7, r25
    4d1e:	80 93 b6 14 	sts	0x14B6, r24
    4d22:	89 2b       	or	r24, r25
    4d24:	51 f4       	brne	.+20     	; 0x4d3a <vPortYieldFromTick+0x8a>
    4d26:	0e 94 59 02 	call	0x4b2	; 0x4b2 <system_tick>
    4d2a:	80 91 b8 14 	lds	r24, 0x14B8
    4d2e:	90 91 b9 14 	lds	r25, 0x14B9
    4d32:	90 93 b7 14 	sts	0x14B7, r25
    4d36:	80 93 b6 14 	sts	0x14B6, r24
    4d3a:	0e 94 4b 17 	call	0x2e96	; 0x2e96 <xTaskIncrementTick>
    4d3e:	81 11       	cpse	r24, r1
    4d40:	0e 94 2c 18 	call	0x3058	; 0x3058 <vTaskSwitchContext>
    4d44:	a0 91 b4 14 	lds	r26, 0x14B4
    4d48:	b0 91 b5 14 	lds	r27, 0x14B5
    4d4c:	cd 91       	ld	r28, X+
    4d4e:	cd bf       	out	0x3d, r28	; 61
    4d50:	dd 91       	ld	r29, X+
    4d52:	de bf       	out	0x3e, r29	; 62
    4d54:	ff 91       	pop	r31
    4d56:	ef 91       	pop	r30
    4d58:	df 91       	pop	r29
    4d5a:	cf 91       	pop	r28
    4d5c:	bf 91       	pop	r27
    4d5e:	af 91       	pop	r26
    4d60:	9f 91       	pop	r25
    4d62:	8f 91       	pop	r24
    4d64:	7f 91       	pop	r23
    4d66:	6f 91       	pop	r22
    4d68:	5f 91       	pop	r21
    4d6a:	4f 91       	pop	r20
    4d6c:	3f 91       	pop	r19
    4d6e:	2f 91       	pop	r18
    4d70:	1f 91       	pop	r17
    4d72:	0f 91       	pop	r16
    4d74:	ff 90       	pop	r15
    4d76:	ef 90       	pop	r14
    4d78:	df 90       	pop	r13
    4d7a:	cf 90       	pop	r12
    4d7c:	bf 90       	pop	r11
    4d7e:	af 90       	pop	r10
    4d80:	9f 90       	pop	r9
    4d82:	8f 90       	pop	r8
    4d84:	7f 90       	pop	r7
    4d86:	6f 90       	pop	r6
    4d88:	5f 90       	pop	r5
    4d8a:	4f 90       	pop	r4
    4d8c:	3f 90       	pop	r3
    4d8e:	2f 90       	pop	r2
    4d90:	1f 90       	pop	r1
    4d92:	0f 90       	pop	r0
    4d94:	0c be       	out	0x3c, r0	; 60
    4d96:	0f 90       	pop	r0
    4d98:	0b be       	out	0x3b, r0	; 59
    4d9a:	0f 90       	pop	r0
    4d9c:	0f be       	out	0x3f, r0	; 63
    4d9e:	0f 90       	pop	r0
    4da0:	08 95       	ret

00004da2 <__vector_32>:
    4da2:	0e 94 58 26 	call	0x4cb0	; 0x4cb0 <vPortYieldFromTick>
    4da6:	18 95       	reti

00004da8 <vListInitialise>:
    4da8:	fc 01       	movw	r30, r24
    4daa:	03 96       	adiw	r24, 0x03	; 3
    4dac:	92 83       	std	Z+2, r25	; 0x02
    4dae:	81 83       	std	Z+1, r24	; 0x01
    4db0:	2f ef       	ldi	r18, 0xFF	; 255
    4db2:	3f ef       	ldi	r19, 0xFF	; 255
    4db4:	34 83       	std	Z+4, r19	; 0x04
    4db6:	23 83       	std	Z+3, r18	; 0x03
    4db8:	96 83       	std	Z+6, r25	; 0x06
    4dba:	85 83       	std	Z+5, r24	; 0x05
    4dbc:	90 87       	std	Z+8, r25	; 0x08
    4dbe:	87 83       	std	Z+7, r24	; 0x07
    4dc0:	10 82       	st	Z, r1
    4dc2:	08 95       	ret

00004dc4 <vListInitialiseItem>:
    4dc4:	fc 01       	movw	r30, r24
    4dc6:	11 86       	std	Z+9, r1	; 0x09
    4dc8:	10 86       	std	Z+8, r1	; 0x08
    4dca:	08 95       	ret

00004dcc <vListInsertEnd>:
    4dcc:	cf 93       	push	r28
    4dce:	df 93       	push	r29
    4dd0:	9c 01       	movw	r18, r24
    4dd2:	fb 01       	movw	r30, r22
    4dd4:	dc 01       	movw	r26, r24
    4dd6:	11 96       	adiw	r26, 0x01	; 1
    4dd8:	cd 91       	ld	r28, X+
    4dda:	dc 91       	ld	r29, X
    4ddc:	12 97       	sbiw	r26, 0x02	; 2
    4dde:	d3 83       	std	Z+3, r29	; 0x03
    4de0:	c2 83       	std	Z+2, r28	; 0x02
    4de2:	8c 81       	ldd	r24, Y+4	; 0x04
    4de4:	9d 81       	ldd	r25, Y+5	; 0x05
    4de6:	95 83       	std	Z+5, r25	; 0x05
    4de8:	84 83       	std	Z+4, r24	; 0x04
    4dea:	8c 81       	ldd	r24, Y+4	; 0x04
    4dec:	9d 81       	ldd	r25, Y+5	; 0x05
    4dee:	dc 01       	movw	r26, r24
    4df0:	13 96       	adiw	r26, 0x03	; 3
    4df2:	7c 93       	st	X, r23
    4df4:	6e 93       	st	-X, r22
    4df6:	12 97       	sbiw	r26, 0x02	; 2
    4df8:	7d 83       	std	Y+5, r23	; 0x05
    4dfa:	6c 83       	std	Y+4, r22	; 0x04
    4dfc:	31 87       	std	Z+9, r19	; 0x09
    4dfe:	20 87       	std	Z+8, r18	; 0x08
    4e00:	f9 01       	movw	r30, r18
    4e02:	80 81       	ld	r24, Z
    4e04:	8f 5f       	subi	r24, 0xFF	; 255
    4e06:	80 83       	st	Z, r24
    4e08:	df 91       	pop	r29
    4e0a:	cf 91       	pop	r28
    4e0c:	08 95       	ret

00004e0e <vListInsert>:
    4e0e:	cf 93       	push	r28
    4e10:	df 93       	push	r29
    4e12:	eb 01       	movw	r28, r22
    4e14:	48 81       	ld	r20, Y
    4e16:	59 81       	ldd	r21, Y+1	; 0x01
    4e18:	4f 3f       	cpi	r20, 0xFF	; 255
    4e1a:	2f ef       	ldi	r18, 0xFF	; 255
    4e1c:	52 07       	cpc	r21, r18
    4e1e:	01 f1       	breq	.+64     	; 0x4e60 <vListInsert+0x52>
    4e20:	dc 01       	movw	r26, r24
    4e22:	13 96       	adiw	r26, 0x03	; 3
    4e24:	01 c0       	rjmp	.+2      	; 0x4e28 <vListInsert+0x1a>
    4e26:	df 01       	movw	r26, r30
    4e28:	12 96       	adiw	r26, 0x02	; 2
    4e2a:	ed 91       	ld	r30, X+
    4e2c:	fc 91       	ld	r31, X
    4e2e:	13 97       	sbiw	r26, 0x03	; 3
    4e30:	20 81       	ld	r18, Z
    4e32:	31 81       	ldd	r19, Z+1	; 0x01
    4e34:	42 17       	cp	r20, r18
    4e36:	53 07       	cpc	r21, r19
    4e38:	b0 f7       	brcc	.-20     	; 0x4e26 <vListInsert+0x18>
    4e3a:	fb 83       	std	Y+3, r31	; 0x03
    4e3c:	ea 83       	std	Y+2, r30	; 0x02
    4e3e:	d5 83       	std	Z+5, r29	; 0x05
    4e40:	c4 83       	std	Z+4, r28	; 0x04
    4e42:	bd 83       	std	Y+5, r27	; 0x05
    4e44:	ac 83       	std	Y+4, r26	; 0x04
    4e46:	13 96       	adiw	r26, 0x03	; 3
    4e48:	dc 93       	st	X, r29
    4e4a:	ce 93       	st	-X, r28
    4e4c:	12 97       	sbiw	r26, 0x02	; 2
    4e4e:	99 87       	std	Y+9, r25	; 0x09
    4e50:	88 87       	std	Y+8, r24	; 0x08
    4e52:	fc 01       	movw	r30, r24
    4e54:	20 81       	ld	r18, Z
    4e56:	2f 5f       	subi	r18, 0xFF	; 255
    4e58:	20 83       	st	Z, r18
    4e5a:	df 91       	pop	r29
    4e5c:	cf 91       	pop	r28
    4e5e:	08 95       	ret
    4e60:	fc 01       	movw	r30, r24
    4e62:	a7 81       	ldd	r26, Z+7	; 0x07
    4e64:	b0 85       	ldd	r27, Z+8	; 0x08
    4e66:	12 96       	adiw	r26, 0x02	; 2
    4e68:	ed 91       	ld	r30, X+
    4e6a:	fc 91       	ld	r31, X
    4e6c:	13 97       	sbiw	r26, 0x03	; 3
    4e6e:	e5 cf       	rjmp	.-54     	; 0x4e3a <vListInsert+0x2c>

00004e70 <uxListRemove>:
    4e70:	cf 93       	push	r28
    4e72:	df 93       	push	r29
    4e74:	fc 01       	movw	r30, r24
    4e76:	a0 85       	ldd	r26, Z+8	; 0x08
    4e78:	b1 85       	ldd	r27, Z+9	; 0x09
    4e7a:	22 81       	ldd	r18, Z+2	; 0x02
    4e7c:	33 81       	ldd	r19, Z+3	; 0x03
    4e7e:	84 81       	ldd	r24, Z+4	; 0x04
    4e80:	95 81       	ldd	r25, Z+5	; 0x05
    4e82:	e9 01       	movw	r28, r18
    4e84:	9d 83       	std	Y+5, r25	; 0x05
    4e86:	8c 83       	std	Y+4, r24	; 0x04
    4e88:	84 81       	ldd	r24, Z+4	; 0x04
    4e8a:	95 81       	ldd	r25, Z+5	; 0x05
    4e8c:	ec 01       	movw	r28, r24
    4e8e:	3b 83       	std	Y+3, r19	; 0x03
    4e90:	2a 83       	std	Y+2, r18	; 0x02
    4e92:	11 96       	adiw	r26, 0x01	; 1
    4e94:	2d 91       	ld	r18, X+
    4e96:	3c 91       	ld	r19, X
    4e98:	12 97       	sbiw	r26, 0x02	; 2
    4e9a:	2e 17       	cp	r18, r30
    4e9c:	3f 07       	cpc	r19, r31
    4e9e:	41 f0       	breq	.+16     	; 0x4eb0 <uxListRemove+0x40>
    4ea0:	11 86       	std	Z+9, r1	; 0x09
    4ea2:	10 86       	std	Z+8, r1	; 0x08
    4ea4:	8c 91       	ld	r24, X
    4ea6:	81 50       	subi	r24, 0x01	; 1
    4ea8:	8c 93       	st	X, r24
    4eaa:	df 91       	pop	r29
    4eac:	cf 91       	pop	r28
    4eae:	08 95       	ret
    4eb0:	12 96       	adiw	r26, 0x02	; 2
    4eb2:	9c 93       	st	X, r25
    4eb4:	8e 93       	st	-X, r24
    4eb6:	11 97       	sbiw	r26, 0x01	; 1
    4eb8:	11 86       	std	Z+9, r1	; 0x09
    4eba:	10 86       	std	Z+8, r1	; 0x08
    4ebc:	8c 91       	ld	r24, X
    4ebe:	81 50       	subi	r24, 0x01	; 1
    4ec0:	8c 93       	st	X, r24
    4ec2:	df 91       	pop	r29
    4ec4:	cf 91       	pop	r28
    4ec6:	08 95       	ret

00004ec8 <xconfigTimerForRunTimeStats>:
    4ec8:	10 92 80 00 	sts	0x0080, r1
    4ecc:	e1 e8       	ldi	r30, 0x81	; 129
    4ece:	f0 e0       	ldi	r31, 0x00	; 0
    4ed0:	10 82       	st	Z, r1
    4ed2:	10 92 85 00 	sts	0x0085, r1
    4ed6:	10 92 84 00 	sts	0x0084, r1
    4eda:	84 e0       	ldi	r24, 0x04	; 4
    4edc:	80 83       	st	Z, r24
    4ede:	08 95       	ret

00004ee0 <__udivmodsi4>:
    4ee0:	a1 e2       	ldi	r26, 0x21	; 33
    4ee2:	1a 2e       	mov	r1, r26
    4ee4:	aa 1b       	sub	r26, r26
    4ee6:	bb 1b       	sub	r27, r27
    4ee8:	fd 01       	movw	r30, r26
    4eea:	0d c0       	rjmp	.+26     	; 0x4f06 <__udivmodsi4_ep>

00004eec <__udivmodsi4_loop>:
    4eec:	aa 1f       	adc	r26, r26
    4eee:	bb 1f       	adc	r27, r27
    4ef0:	ee 1f       	adc	r30, r30
    4ef2:	ff 1f       	adc	r31, r31
    4ef4:	a2 17       	cp	r26, r18
    4ef6:	b3 07       	cpc	r27, r19
    4ef8:	e4 07       	cpc	r30, r20
    4efa:	f5 07       	cpc	r31, r21
    4efc:	20 f0       	brcs	.+8      	; 0x4f06 <__udivmodsi4_ep>
    4efe:	a2 1b       	sub	r26, r18
    4f00:	b3 0b       	sbc	r27, r19
    4f02:	e4 0b       	sbc	r30, r20
    4f04:	f5 0b       	sbc	r31, r21

00004f06 <__udivmodsi4_ep>:
    4f06:	66 1f       	adc	r22, r22
    4f08:	77 1f       	adc	r23, r23
    4f0a:	88 1f       	adc	r24, r24
    4f0c:	99 1f       	adc	r25, r25
    4f0e:	1a 94       	dec	r1
    4f10:	69 f7       	brne	.-38     	; 0x4eec <__udivmodsi4_loop>
    4f12:	60 95       	com	r22
    4f14:	70 95       	com	r23
    4f16:	80 95       	com	r24
    4f18:	90 95       	com	r25
    4f1a:	9b 01       	movw	r18, r22
    4f1c:	ac 01       	movw	r20, r24
    4f1e:	bd 01       	movw	r22, r26
    4f20:	cf 01       	movw	r24, r30
    4f22:	08 95       	ret

00004f24 <__prologue_saves__>:
    4f24:	2f 92       	push	r2
    4f26:	3f 92       	push	r3
    4f28:	4f 92       	push	r4
    4f2a:	5f 92       	push	r5
    4f2c:	6f 92       	push	r6
    4f2e:	7f 92       	push	r7
    4f30:	8f 92       	push	r8
    4f32:	9f 92       	push	r9
    4f34:	af 92       	push	r10
    4f36:	bf 92       	push	r11
    4f38:	cf 92       	push	r12
    4f3a:	df 92       	push	r13
    4f3c:	ef 92       	push	r14
    4f3e:	ff 92       	push	r15
    4f40:	0f 93       	push	r16
    4f42:	1f 93       	push	r17
    4f44:	cf 93       	push	r28
    4f46:	df 93       	push	r29
    4f48:	cd b7       	in	r28, 0x3d	; 61
    4f4a:	de b7       	in	r29, 0x3e	; 62
    4f4c:	ca 1b       	sub	r28, r26
    4f4e:	db 0b       	sbc	r29, r27
    4f50:	0f b6       	in	r0, 0x3f	; 63
    4f52:	f8 94       	cli
    4f54:	de bf       	out	0x3e, r29	; 62
    4f56:	0f be       	out	0x3f, r0	; 63
    4f58:	cd bf       	out	0x3d, r28	; 61
    4f5a:	19 94       	eijmp

00004f5c <__epilogue_restores__>:
    4f5c:	2a 88       	ldd	r2, Y+18	; 0x12
    4f5e:	39 88       	ldd	r3, Y+17	; 0x11
    4f60:	48 88       	ldd	r4, Y+16	; 0x10
    4f62:	5f 84       	ldd	r5, Y+15	; 0x0f
    4f64:	6e 84       	ldd	r6, Y+14	; 0x0e
    4f66:	7d 84       	ldd	r7, Y+13	; 0x0d
    4f68:	8c 84       	ldd	r8, Y+12	; 0x0c
    4f6a:	9b 84       	ldd	r9, Y+11	; 0x0b
    4f6c:	aa 84       	ldd	r10, Y+10	; 0x0a
    4f6e:	b9 84       	ldd	r11, Y+9	; 0x09
    4f70:	c8 84       	ldd	r12, Y+8	; 0x08
    4f72:	df 80       	ldd	r13, Y+7	; 0x07
    4f74:	ee 80       	ldd	r14, Y+6	; 0x06
    4f76:	fd 80       	ldd	r15, Y+5	; 0x05
    4f78:	0c 81       	ldd	r16, Y+4	; 0x04
    4f7a:	1b 81       	ldd	r17, Y+3	; 0x03
    4f7c:	aa 81       	ldd	r26, Y+2	; 0x02
    4f7e:	b9 81       	ldd	r27, Y+1	; 0x01
    4f80:	ce 0f       	add	r28, r30
    4f82:	d1 1d       	adc	r29, r1
    4f84:	0f b6       	in	r0, 0x3f	; 63
    4f86:	f8 94       	cli
    4f88:	de bf       	out	0x3e, r29	; 62
    4f8a:	0f be       	out	0x3f, r0	; 63
    4f8c:	cd bf       	out	0x3d, r28	; 61
    4f8e:	ed 01       	movw	r28, r26
    4f90:	08 95       	ret

00004f92 <__strlen_P>:
    4f92:	fc 01       	movw	r30, r24
    4f94:	05 90       	lpm	r0, Z+
    4f96:	00 20       	and	r0, r0
    4f98:	e9 f7       	brne	.-6      	; 0x4f94 <__strlen_P+0x2>
    4f9a:	80 95       	com	r24
    4f9c:	90 95       	com	r25
    4f9e:	8e 0f       	add	r24, r30
    4fa0:	9f 1f       	adc	r25, r31
    4fa2:	08 95       	ret

00004fa4 <memset>:
    4fa4:	dc 01       	movw	r26, r24
    4fa6:	01 c0       	rjmp	.+2      	; 0x4faa <memset+0x6>
    4fa8:	6d 93       	st	X+, r22
    4faa:	41 50       	subi	r20, 0x01	; 1
    4fac:	50 40       	sbci	r21, 0x00	; 0
    4fae:	e0 f7       	brcc	.-8      	; 0x4fa8 <memset+0x4>
    4fb0:	08 95       	ret

00004fb2 <sprintf>:
    4fb2:	0f 93       	push	r16
    4fb4:	1f 93       	push	r17
    4fb6:	cf 93       	push	r28
    4fb8:	df 93       	push	r29
    4fba:	cd b7       	in	r28, 0x3d	; 61
    4fbc:	de b7       	in	r29, 0x3e	; 62
    4fbe:	2e 97       	sbiw	r28, 0x0e	; 14
    4fc0:	0f b6       	in	r0, 0x3f	; 63
    4fc2:	f8 94       	cli
    4fc4:	de bf       	out	0x3e, r29	; 62
    4fc6:	0f be       	out	0x3f, r0	; 63
    4fc8:	cd bf       	out	0x3d, r28	; 61
    4fca:	0e 89       	ldd	r16, Y+22	; 0x16
    4fcc:	1f 89       	ldd	r17, Y+23	; 0x17
    4fce:	86 e0       	ldi	r24, 0x06	; 6
    4fd0:	8c 83       	std	Y+4, r24	; 0x04
    4fd2:	1a 83       	std	Y+2, r17	; 0x02
    4fd4:	09 83       	std	Y+1, r16	; 0x01
    4fd6:	8f ef       	ldi	r24, 0xFF	; 255
    4fd8:	9f e7       	ldi	r25, 0x7F	; 127
    4fda:	9e 83       	std	Y+6, r25	; 0x06
    4fdc:	8d 83       	std	Y+5, r24	; 0x05
    4fde:	ae 01       	movw	r20, r28
    4fe0:	46 5e       	subi	r20, 0xE6	; 230
    4fe2:	5f 4f       	sbci	r21, 0xFF	; 255
    4fe4:	68 8d       	ldd	r22, Y+24	; 0x18
    4fe6:	79 8d       	ldd	r23, Y+25	; 0x19
    4fe8:	ce 01       	movw	r24, r28
    4fea:	01 96       	adiw	r24, 0x01	; 1
    4fec:	0e 94 7a 28 	call	0x50f4	; 0x50f4 <vfprintf>
    4ff0:	ef 81       	ldd	r30, Y+7	; 0x07
    4ff2:	f8 85       	ldd	r31, Y+8	; 0x08
    4ff4:	e0 0f       	add	r30, r16
    4ff6:	f1 1f       	adc	r31, r17
    4ff8:	10 82       	st	Z, r1
    4ffa:	2e 96       	adiw	r28, 0x0e	; 14
    4ffc:	0f b6       	in	r0, 0x3f	; 63
    4ffe:	f8 94       	cli
    5000:	de bf       	out	0x3e, r29	; 62
    5002:	0f be       	out	0x3f, r0	; 63
    5004:	cd bf       	out	0x3d, r28	; 61
    5006:	df 91       	pop	r29
    5008:	cf 91       	pop	r28
    500a:	1f 91       	pop	r17
    500c:	0f 91       	pop	r16
    500e:	08 95       	ret

00005010 <vsnprintf>:
    5010:	0f 93       	push	r16
    5012:	1f 93       	push	r17
    5014:	cf 93       	push	r28
    5016:	df 93       	push	r29
    5018:	cd b7       	in	r28, 0x3d	; 61
    501a:	de b7       	in	r29, 0x3e	; 62
    501c:	2e 97       	sbiw	r28, 0x0e	; 14
    501e:	0f b6       	in	r0, 0x3f	; 63
    5020:	f8 94       	cli
    5022:	de bf       	out	0x3e, r29	; 62
    5024:	0f be       	out	0x3f, r0	; 63
    5026:	cd bf       	out	0x3d, r28	; 61
    5028:	8c 01       	movw	r16, r24
    502a:	ca 01       	movw	r24, r20
    502c:	46 e0       	ldi	r20, 0x06	; 6
    502e:	4c 83       	std	Y+4, r20	; 0x04
    5030:	1a 83       	std	Y+2, r17	; 0x02
    5032:	09 83       	std	Y+1, r16	; 0x01
    5034:	77 ff       	sbrs	r23, 7
    5036:	02 c0       	rjmp	.+4      	; 0x503c <vsnprintf+0x2c>
    5038:	60 e0       	ldi	r22, 0x00	; 0
    503a:	70 e8       	ldi	r23, 0x80	; 128
    503c:	61 50       	subi	r22, 0x01	; 1
    503e:	71 09       	sbc	r23, r1
    5040:	7e 83       	std	Y+6, r23	; 0x06
    5042:	6d 83       	std	Y+5, r22	; 0x05
    5044:	a9 01       	movw	r20, r18
    5046:	bc 01       	movw	r22, r24
    5048:	ce 01       	movw	r24, r28
    504a:	01 96       	adiw	r24, 0x01	; 1
    504c:	0e 94 7a 28 	call	0x50f4	; 0x50f4 <vfprintf>
    5050:	4d 81       	ldd	r20, Y+5	; 0x05
    5052:	5e 81       	ldd	r21, Y+6	; 0x06
    5054:	57 fd       	sbrc	r21, 7
    5056:	0a c0       	rjmp	.+20     	; 0x506c <vsnprintf+0x5c>
    5058:	2f 81       	ldd	r18, Y+7	; 0x07
    505a:	38 85       	ldd	r19, Y+8	; 0x08
    505c:	42 17       	cp	r20, r18
    505e:	53 07       	cpc	r21, r19
    5060:	0c f4       	brge	.+2      	; 0x5064 <vsnprintf+0x54>
    5062:	9a 01       	movw	r18, r20
    5064:	f8 01       	movw	r30, r16
    5066:	e2 0f       	add	r30, r18
    5068:	f3 1f       	adc	r31, r19
    506a:	10 82       	st	Z, r1
    506c:	2e 96       	adiw	r28, 0x0e	; 14
    506e:	0f b6       	in	r0, 0x3f	; 63
    5070:	f8 94       	cli
    5072:	de bf       	out	0x3e, r29	; 62
    5074:	0f be       	out	0x3f, r0	; 63
    5076:	cd bf       	out	0x3d, r28	; 61
    5078:	df 91       	pop	r29
    507a:	cf 91       	pop	r28
    507c:	1f 91       	pop	r17
    507e:	0f 91       	pop	r16
    5080:	08 95       	ret

00005082 <vsnprintf_P>:
    5082:	0f 93       	push	r16
    5084:	1f 93       	push	r17
    5086:	cf 93       	push	r28
    5088:	df 93       	push	r29
    508a:	cd b7       	in	r28, 0x3d	; 61
    508c:	de b7       	in	r29, 0x3e	; 62
    508e:	2e 97       	sbiw	r28, 0x0e	; 14
    5090:	0f b6       	in	r0, 0x3f	; 63
    5092:	f8 94       	cli
    5094:	de bf       	out	0x3e, r29	; 62
    5096:	0f be       	out	0x3f, r0	; 63
    5098:	cd bf       	out	0x3d, r28	; 61
    509a:	8c 01       	movw	r16, r24
    509c:	ca 01       	movw	r24, r20
    509e:	4e e0       	ldi	r20, 0x0E	; 14
    50a0:	4c 83       	std	Y+4, r20	; 0x04
    50a2:	1a 83       	std	Y+2, r17	; 0x02
    50a4:	09 83       	std	Y+1, r16	; 0x01
    50a6:	77 ff       	sbrs	r23, 7
    50a8:	02 c0       	rjmp	.+4      	; 0x50ae <vsnprintf_P+0x2c>
    50aa:	60 e0       	ldi	r22, 0x00	; 0
    50ac:	70 e8       	ldi	r23, 0x80	; 128
    50ae:	61 50       	subi	r22, 0x01	; 1
    50b0:	71 09       	sbc	r23, r1
    50b2:	7e 83       	std	Y+6, r23	; 0x06
    50b4:	6d 83       	std	Y+5, r22	; 0x05
    50b6:	a9 01       	movw	r20, r18
    50b8:	bc 01       	movw	r22, r24
    50ba:	ce 01       	movw	r24, r28
    50bc:	01 96       	adiw	r24, 0x01	; 1
    50be:	0e 94 7a 28 	call	0x50f4	; 0x50f4 <vfprintf>
    50c2:	4d 81       	ldd	r20, Y+5	; 0x05
    50c4:	5e 81       	ldd	r21, Y+6	; 0x06
    50c6:	57 fd       	sbrc	r21, 7
    50c8:	0a c0       	rjmp	.+20     	; 0x50de <vsnprintf_P+0x5c>
    50ca:	2f 81       	ldd	r18, Y+7	; 0x07
    50cc:	38 85       	ldd	r19, Y+8	; 0x08
    50ce:	42 17       	cp	r20, r18
    50d0:	53 07       	cpc	r21, r19
    50d2:	0c f4       	brge	.+2      	; 0x50d6 <vsnprintf_P+0x54>
    50d4:	9a 01       	movw	r18, r20
    50d6:	f8 01       	movw	r30, r16
    50d8:	e2 0f       	add	r30, r18
    50da:	f3 1f       	adc	r31, r19
    50dc:	10 82       	st	Z, r1
    50de:	2e 96       	adiw	r28, 0x0e	; 14
    50e0:	0f b6       	in	r0, 0x3f	; 63
    50e2:	f8 94       	cli
    50e4:	de bf       	out	0x3e, r29	; 62
    50e6:	0f be       	out	0x3f, r0	; 63
    50e8:	cd bf       	out	0x3d, r28	; 61
    50ea:	df 91       	pop	r29
    50ec:	cf 91       	pop	r28
    50ee:	1f 91       	pop	r17
    50f0:	0f 91       	pop	r16
    50f2:	08 95       	ret

000050f4 <vfprintf>:
    50f4:	2f 92       	push	r2
    50f6:	3f 92       	push	r3
    50f8:	4f 92       	push	r4
    50fa:	5f 92       	push	r5
    50fc:	6f 92       	push	r6
    50fe:	7f 92       	push	r7
    5100:	8f 92       	push	r8
    5102:	9f 92       	push	r9
    5104:	af 92       	push	r10
    5106:	bf 92       	push	r11
    5108:	cf 92       	push	r12
    510a:	df 92       	push	r13
    510c:	ef 92       	push	r14
    510e:	ff 92       	push	r15
    5110:	0f 93       	push	r16
    5112:	1f 93       	push	r17
    5114:	cf 93       	push	r28
    5116:	df 93       	push	r29
    5118:	cd b7       	in	r28, 0x3d	; 61
    511a:	de b7       	in	r29, 0x3e	; 62
    511c:	2c 97       	sbiw	r28, 0x0c	; 12
    511e:	0f b6       	in	r0, 0x3f	; 63
    5120:	f8 94       	cli
    5122:	de bf       	out	0x3e, r29	; 62
    5124:	0f be       	out	0x3f, r0	; 63
    5126:	cd bf       	out	0x3d, r28	; 61
    5128:	7c 01       	movw	r14, r24
    512a:	6b 01       	movw	r12, r22
    512c:	8a 01       	movw	r16, r20
    512e:	fc 01       	movw	r30, r24
    5130:	17 82       	std	Z+7, r1	; 0x07
    5132:	16 82       	std	Z+6, r1	; 0x06
    5134:	83 81       	ldd	r24, Z+3	; 0x03
    5136:	81 ff       	sbrs	r24, 1
    5138:	bd c1       	rjmp	.+890    	; 0x54b4 <vfprintf+0x3c0>
    513a:	ce 01       	movw	r24, r28
    513c:	01 96       	adiw	r24, 0x01	; 1
    513e:	4c 01       	movw	r8, r24
    5140:	f7 01       	movw	r30, r14
    5142:	93 81       	ldd	r25, Z+3	; 0x03
    5144:	f6 01       	movw	r30, r12
    5146:	93 fd       	sbrc	r25, 3
    5148:	85 91       	lpm	r24, Z+
    514a:	93 ff       	sbrs	r25, 3
    514c:	81 91       	ld	r24, Z+
    514e:	6f 01       	movw	r12, r30
    5150:	88 23       	and	r24, r24
    5152:	09 f4       	brne	.+2      	; 0x5156 <vfprintf+0x62>
    5154:	ab c1       	rjmp	.+854    	; 0x54ac <vfprintf+0x3b8>
    5156:	85 32       	cpi	r24, 0x25	; 37
    5158:	39 f4       	brne	.+14     	; 0x5168 <vfprintf+0x74>
    515a:	93 fd       	sbrc	r25, 3
    515c:	85 91       	lpm	r24, Z+
    515e:	93 ff       	sbrs	r25, 3
    5160:	81 91       	ld	r24, Z+
    5162:	6f 01       	movw	r12, r30
    5164:	85 32       	cpi	r24, 0x25	; 37
    5166:	29 f4       	brne	.+10     	; 0x5172 <vfprintf+0x7e>
    5168:	b7 01       	movw	r22, r14
    516a:	90 e0       	ldi	r25, 0x00	; 0
    516c:	0e 94 8b 2a 	call	0x5516	; 0x5516 <fputc>
    5170:	e7 cf       	rjmp	.-50     	; 0x5140 <vfprintf+0x4c>
    5172:	51 2c       	mov	r5, r1
    5174:	31 2c       	mov	r3, r1
    5176:	20 e0       	ldi	r18, 0x00	; 0
    5178:	20 32       	cpi	r18, 0x20	; 32
    517a:	a0 f4       	brcc	.+40     	; 0x51a4 <vfprintf+0xb0>
    517c:	8b 32       	cpi	r24, 0x2B	; 43
    517e:	69 f0       	breq	.+26     	; 0x519a <vfprintf+0xa6>
    5180:	30 f4       	brcc	.+12     	; 0x518e <vfprintf+0x9a>
    5182:	80 32       	cpi	r24, 0x20	; 32
    5184:	59 f0       	breq	.+22     	; 0x519c <vfprintf+0xa8>
    5186:	83 32       	cpi	r24, 0x23	; 35
    5188:	69 f4       	brne	.+26     	; 0x51a4 <vfprintf+0xb0>
    518a:	20 61       	ori	r18, 0x10	; 16
    518c:	2c c0       	rjmp	.+88     	; 0x51e6 <vfprintf+0xf2>
    518e:	8d 32       	cpi	r24, 0x2D	; 45
    5190:	39 f0       	breq	.+14     	; 0x51a0 <vfprintf+0xac>
    5192:	80 33       	cpi	r24, 0x30	; 48
    5194:	39 f4       	brne	.+14     	; 0x51a4 <vfprintf+0xb0>
    5196:	21 60       	ori	r18, 0x01	; 1
    5198:	26 c0       	rjmp	.+76     	; 0x51e6 <vfprintf+0xf2>
    519a:	22 60       	ori	r18, 0x02	; 2
    519c:	24 60       	ori	r18, 0x04	; 4
    519e:	23 c0       	rjmp	.+70     	; 0x51e6 <vfprintf+0xf2>
    51a0:	28 60       	ori	r18, 0x08	; 8
    51a2:	21 c0       	rjmp	.+66     	; 0x51e6 <vfprintf+0xf2>
    51a4:	27 fd       	sbrc	r18, 7
    51a6:	27 c0       	rjmp	.+78     	; 0x51f6 <vfprintf+0x102>
    51a8:	30 ed       	ldi	r19, 0xD0	; 208
    51aa:	38 0f       	add	r19, r24
    51ac:	3a 30       	cpi	r19, 0x0A	; 10
    51ae:	78 f4       	brcc	.+30     	; 0x51ce <vfprintf+0xda>
    51b0:	26 ff       	sbrs	r18, 6
    51b2:	06 c0       	rjmp	.+12     	; 0x51c0 <vfprintf+0xcc>
    51b4:	fa e0       	ldi	r31, 0x0A	; 10
    51b6:	5f 9e       	mul	r5, r31
    51b8:	30 0d       	add	r19, r0
    51ba:	11 24       	eor	r1, r1
    51bc:	53 2e       	mov	r5, r19
    51be:	13 c0       	rjmp	.+38     	; 0x51e6 <vfprintf+0xf2>
    51c0:	8a e0       	ldi	r24, 0x0A	; 10
    51c2:	38 9e       	mul	r3, r24
    51c4:	30 0d       	add	r19, r0
    51c6:	11 24       	eor	r1, r1
    51c8:	33 2e       	mov	r3, r19
    51ca:	20 62       	ori	r18, 0x20	; 32
    51cc:	0c c0       	rjmp	.+24     	; 0x51e6 <vfprintf+0xf2>
    51ce:	8e 32       	cpi	r24, 0x2E	; 46
    51d0:	21 f4       	brne	.+8      	; 0x51da <vfprintf+0xe6>
    51d2:	26 fd       	sbrc	r18, 6
    51d4:	6b c1       	rjmp	.+726    	; 0x54ac <vfprintf+0x3b8>
    51d6:	20 64       	ori	r18, 0x40	; 64
    51d8:	06 c0       	rjmp	.+12     	; 0x51e6 <vfprintf+0xf2>
    51da:	8c 36       	cpi	r24, 0x6C	; 108
    51dc:	11 f4       	brne	.+4      	; 0x51e2 <vfprintf+0xee>
    51de:	20 68       	ori	r18, 0x80	; 128
    51e0:	02 c0       	rjmp	.+4      	; 0x51e6 <vfprintf+0xf2>
    51e2:	88 36       	cpi	r24, 0x68	; 104
    51e4:	41 f4       	brne	.+16     	; 0x51f6 <vfprintf+0x102>
    51e6:	f6 01       	movw	r30, r12
    51e8:	93 fd       	sbrc	r25, 3
    51ea:	85 91       	lpm	r24, Z+
    51ec:	93 ff       	sbrs	r25, 3
    51ee:	81 91       	ld	r24, Z+
    51f0:	6f 01       	movw	r12, r30
    51f2:	81 11       	cpse	r24, r1
    51f4:	c1 cf       	rjmp	.-126    	; 0x5178 <vfprintf+0x84>
    51f6:	98 2f       	mov	r25, r24
    51f8:	9f 7d       	andi	r25, 0xDF	; 223
    51fa:	95 54       	subi	r25, 0x45	; 69
    51fc:	93 30       	cpi	r25, 0x03	; 3
    51fe:	28 f4       	brcc	.+10     	; 0x520a <vfprintf+0x116>
    5200:	0c 5f       	subi	r16, 0xFC	; 252
    5202:	1f 4f       	sbci	r17, 0xFF	; 255
    5204:	ff e3       	ldi	r31, 0x3F	; 63
    5206:	f9 83       	std	Y+1, r31	; 0x01
    5208:	0d c0       	rjmp	.+26     	; 0x5224 <vfprintf+0x130>
    520a:	83 36       	cpi	r24, 0x63	; 99
    520c:	31 f0       	breq	.+12     	; 0x521a <vfprintf+0x126>
    520e:	83 37       	cpi	r24, 0x73	; 115
    5210:	71 f0       	breq	.+28     	; 0x522e <vfprintf+0x13a>
    5212:	83 35       	cpi	r24, 0x53	; 83
    5214:	09 f0       	breq	.+2      	; 0x5218 <vfprintf+0x124>
    5216:	5b c0       	rjmp	.+182    	; 0x52ce <vfprintf+0x1da>
    5218:	22 c0       	rjmp	.+68     	; 0x525e <vfprintf+0x16a>
    521a:	f8 01       	movw	r30, r16
    521c:	80 81       	ld	r24, Z
    521e:	89 83       	std	Y+1, r24	; 0x01
    5220:	0e 5f       	subi	r16, 0xFE	; 254
    5222:	1f 4f       	sbci	r17, 0xFF	; 255
    5224:	44 24       	eor	r4, r4
    5226:	43 94       	inc	r4
    5228:	51 2c       	mov	r5, r1
    522a:	54 01       	movw	r10, r8
    522c:	15 c0       	rjmp	.+42     	; 0x5258 <vfprintf+0x164>
    522e:	38 01       	movw	r6, r16
    5230:	f2 e0       	ldi	r31, 0x02	; 2
    5232:	6f 0e       	add	r6, r31
    5234:	71 1c       	adc	r7, r1
    5236:	f8 01       	movw	r30, r16
    5238:	a0 80       	ld	r10, Z
    523a:	b1 80       	ldd	r11, Z+1	; 0x01
    523c:	26 ff       	sbrs	r18, 6
    523e:	03 c0       	rjmp	.+6      	; 0x5246 <vfprintf+0x152>
    5240:	65 2d       	mov	r22, r5
    5242:	70 e0       	ldi	r23, 0x00	; 0
    5244:	02 c0       	rjmp	.+4      	; 0x524a <vfprintf+0x156>
    5246:	6f ef       	ldi	r22, 0xFF	; 255
    5248:	7f ef       	ldi	r23, 0xFF	; 255
    524a:	c5 01       	movw	r24, r10
    524c:	2c 87       	std	Y+12, r18	; 0x0c
    524e:	0e 94 80 2a 	call	0x5500	; 0x5500 <strnlen>
    5252:	2c 01       	movw	r4, r24
    5254:	83 01       	movw	r16, r6
    5256:	2c 85       	ldd	r18, Y+12	; 0x0c
    5258:	2f 77       	andi	r18, 0x7F	; 127
    525a:	22 2e       	mov	r2, r18
    525c:	17 c0       	rjmp	.+46     	; 0x528c <vfprintf+0x198>
    525e:	38 01       	movw	r6, r16
    5260:	f2 e0       	ldi	r31, 0x02	; 2
    5262:	6f 0e       	add	r6, r31
    5264:	71 1c       	adc	r7, r1
    5266:	f8 01       	movw	r30, r16
    5268:	a0 80       	ld	r10, Z
    526a:	b1 80       	ldd	r11, Z+1	; 0x01
    526c:	26 ff       	sbrs	r18, 6
    526e:	03 c0       	rjmp	.+6      	; 0x5276 <vfprintf+0x182>
    5270:	65 2d       	mov	r22, r5
    5272:	70 e0       	ldi	r23, 0x00	; 0
    5274:	02 c0       	rjmp	.+4      	; 0x527a <vfprintf+0x186>
    5276:	6f ef       	ldi	r22, 0xFF	; 255
    5278:	7f ef       	ldi	r23, 0xFF	; 255
    527a:	c5 01       	movw	r24, r10
    527c:	2c 87       	std	Y+12, r18	; 0x0c
    527e:	0e 94 75 2a 	call	0x54ea	; 0x54ea <strnlen_P>
    5282:	2c 01       	movw	r4, r24
    5284:	2c 85       	ldd	r18, Y+12	; 0x0c
    5286:	20 68       	ori	r18, 0x80	; 128
    5288:	22 2e       	mov	r2, r18
    528a:	83 01       	movw	r16, r6
    528c:	23 fc       	sbrc	r2, 3
    528e:	1b c0       	rjmp	.+54     	; 0x52c6 <vfprintf+0x1d2>
    5290:	83 2d       	mov	r24, r3
    5292:	90 e0       	ldi	r25, 0x00	; 0
    5294:	48 16       	cp	r4, r24
    5296:	59 06       	cpc	r5, r25
    5298:	b0 f4       	brcc	.+44     	; 0x52c6 <vfprintf+0x1d2>
    529a:	b7 01       	movw	r22, r14
    529c:	80 e2       	ldi	r24, 0x20	; 32
    529e:	90 e0       	ldi	r25, 0x00	; 0
    52a0:	0e 94 8b 2a 	call	0x5516	; 0x5516 <fputc>
    52a4:	3a 94       	dec	r3
    52a6:	f4 cf       	rjmp	.-24     	; 0x5290 <vfprintf+0x19c>
    52a8:	f5 01       	movw	r30, r10
    52aa:	27 fc       	sbrc	r2, 7
    52ac:	85 91       	lpm	r24, Z+
    52ae:	27 fe       	sbrs	r2, 7
    52b0:	81 91       	ld	r24, Z+
    52b2:	5f 01       	movw	r10, r30
    52b4:	b7 01       	movw	r22, r14
    52b6:	90 e0       	ldi	r25, 0x00	; 0
    52b8:	0e 94 8b 2a 	call	0x5516	; 0x5516 <fputc>
    52bc:	31 10       	cpse	r3, r1
    52be:	3a 94       	dec	r3
    52c0:	f1 e0       	ldi	r31, 0x01	; 1
    52c2:	4f 1a       	sub	r4, r31
    52c4:	51 08       	sbc	r5, r1
    52c6:	41 14       	cp	r4, r1
    52c8:	51 04       	cpc	r5, r1
    52ca:	71 f7       	brne	.-36     	; 0x52a8 <vfprintf+0x1b4>
    52cc:	e5 c0       	rjmp	.+458    	; 0x5498 <vfprintf+0x3a4>
    52ce:	84 36       	cpi	r24, 0x64	; 100
    52d0:	11 f0       	breq	.+4      	; 0x52d6 <vfprintf+0x1e2>
    52d2:	89 36       	cpi	r24, 0x69	; 105
    52d4:	39 f5       	brne	.+78     	; 0x5324 <vfprintf+0x230>
    52d6:	f8 01       	movw	r30, r16
    52d8:	27 ff       	sbrs	r18, 7
    52da:	07 c0       	rjmp	.+14     	; 0x52ea <vfprintf+0x1f6>
    52dc:	60 81       	ld	r22, Z
    52de:	71 81       	ldd	r23, Z+1	; 0x01
    52e0:	82 81       	ldd	r24, Z+2	; 0x02
    52e2:	93 81       	ldd	r25, Z+3	; 0x03
    52e4:	0c 5f       	subi	r16, 0xFC	; 252
    52e6:	1f 4f       	sbci	r17, 0xFF	; 255
    52e8:	08 c0       	rjmp	.+16     	; 0x52fa <vfprintf+0x206>
    52ea:	60 81       	ld	r22, Z
    52ec:	71 81       	ldd	r23, Z+1	; 0x01
    52ee:	88 27       	eor	r24, r24
    52f0:	77 fd       	sbrc	r23, 7
    52f2:	80 95       	com	r24
    52f4:	98 2f       	mov	r25, r24
    52f6:	0e 5f       	subi	r16, 0xFE	; 254
    52f8:	1f 4f       	sbci	r17, 0xFF	; 255
    52fa:	2f 76       	andi	r18, 0x6F	; 111
    52fc:	b2 2e       	mov	r11, r18
    52fe:	97 ff       	sbrs	r25, 7
    5300:	09 c0       	rjmp	.+18     	; 0x5314 <vfprintf+0x220>
    5302:	90 95       	com	r25
    5304:	80 95       	com	r24
    5306:	70 95       	com	r23
    5308:	61 95       	neg	r22
    530a:	7f 4f       	sbci	r23, 0xFF	; 255
    530c:	8f 4f       	sbci	r24, 0xFF	; 255
    530e:	9f 4f       	sbci	r25, 0xFF	; 255
    5310:	20 68       	ori	r18, 0x80	; 128
    5312:	b2 2e       	mov	r11, r18
    5314:	2a e0       	ldi	r18, 0x0A	; 10
    5316:	30 e0       	ldi	r19, 0x00	; 0
    5318:	a4 01       	movw	r20, r8
    531a:	0e 94 bd 2a 	call	0x557a	; 0x557a <__ultoa_invert>
    531e:	a8 2e       	mov	r10, r24
    5320:	a8 18       	sub	r10, r8
    5322:	44 c0       	rjmp	.+136    	; 0x53ac <vfprintf+0x2b8>
    5324:	85 37       	cpi	r24, 0x75	; 117
    5326:	29 f4       	brne	.+10     	; 0x5332 <vfprintf+0x23e>
    5328:	2f 7e       	andi	r18, 0xEF	; 239
    532a:	b2 2e       	mov	r11, r18
    532c:	2a e0       	ldi	r18, 0x0A	; 10
    532e:	30 e0       	ldi	r19, 0x00	; 0
    5330:	25 c0       	rjmp	.+74     	; 0x537c <vfprintf+0x288>
    5332:	f2 2f       	mov	r31, r18
    5334:	f9 7f       	andi	r31, 0xF9	; 249
    5336:	bf 2e       	mov	r11, r31
    5338:	8f 36       	cpi	r24, 0x6F	; 111
    533a:	c1 f0       	breq	.+48     	; 0x536c <vfprintf+0x278>
    533c:	18 f4       	brcc	.+6      	; 0x5344 <vfprintf+0x250>
    533e:	88 35       	cpi	r24, 0x58	; 88
    5340:	79 f0       	breq	.+30     	; 0x5360 <vfprintf+0x26c>
    5342:	b4 c0       	rjmp	.+360    	; 0x54ac <vfprintf+0x3b8>
    5344:	80 37       	cpi	r24, 0x70	; 112
    5346:	19 f0       	breq	.+6      	; 0x534e <vfprintf+0x25a>
    5348:	88 37       	cpi	r24, 0x78	; 120
    534a:	21 f0       	breq	.+8      	; 0x5354 <vfprintf+0x260>
    534c:	af c0       	rjmp	.+350    	; 0x54ac <vfprintf+0x3b8>
    534e:	2f 2f       	mov	r18, r31
    5350:	20 61       	ori	r18, 0x10	; 16
    5352:	b2 2e       	mov	r11, r18
    5354:	b4 fe       	sbrs	r11, 4
    5356:	0d c0       	rjmp	.+26     	; 0x5372 <vfprintf+0x27e>
    5358:	8b 2d       	mov	r24, r11
    535a:	84 60       	ori	r24, 0x04	; 4
    535c:	b8 2e       	mov	r11, r24
    535e:	09 c0       	rjmp	.+18     	; 0x5372 <vfprintf+0x27e>
    5360:	24 ff       	sbrs	r18, 4
    5362:	0a c0       	rjmp	.+20     	; 0x5378 <vfprintf+0x284>
    5364:	9f 2f       	mov	r25, r31
    5366:	96 60       	ori	r25, 0x06	; 6
    5368:	b9 2e       	mov	r11, r25
    536a:	06 c0       	rjmp	.+12     	; 0x5378 <vfprintf+0x284>
    536c:	28 e0       	ldi	r18, 0x08	; 8
    536e:	30 e0       	ldi	r19, 0x00	; 0
    5370:	05 c0       	rjmp	.+10     	; 0x537c <vfprintf+0x288>
    5372:	20 e1       	ldi	r18, 0x10	; 16
    5374:	30 e0       	ldi	r19, 0x00	; 0
    5376:	02 c0       	rjmp	.+4      	; 0x537c <vfprintf+0x288>
    5378:	20 e1       	ldi	r18, 0x10	; 16
    537a:	32 e0       	ldi	r19, 0x02	; 2
    537c:	f8 01       	movw	r30, r16
    537e:	b7 fe       	sbrs	r11, 7
    5380:	07 c0       	rjmp	.+14     	; 0x5390 <vfprintf+0x29c>
    5382:	60 81       	ld	r22, Z
    5384:	71 81       	ldd	r23, Z+1	; 0x01
    5386:	82 81       	ldd	r24, Z+2	; 0x02
    5388:	93 81       	ldd	r25, Z+3	; 0x03
    538a:	0c 5f       	subi	r16, 0xFC	; 252
    538c:	1f 4f       	sbci	r17, 0xFF	; 255
    538e:	06 c0       	rjmp	.+12     	; 0x539c <vfprintf+0x2a8>
    5390:	60 81       	ld	r22, Z
    5392:	71 81       	ldd	r23, Z+1	; 0x01
    5394:	80 e0       	ldi	r24, 0x00	; 0
    5396:	90 e0       	ldi	r25, 0x00	; 0
    5398:	0e 5f       	subi	r16, 0xFE	; 254
    539a:	1f 4f       	sbci	r17, 0xFF	; 255
    539c:	a4 01       	movw	r20, r8
    539e:	0e 94 bd 2a 	call	0x557a	; 0x557a <__ultoa_invert>
    53a2:	a8 2e       	mov	r10, r24
    53a4:	a8 18       	sub	r10, r8
    53a6:	fb 2d       	mov	r31, r11
    53a8:	ff 77       	andi	r31, 0x7F	; 127
    53aa:	bf 2e       	mov	r11, r31
    53ac:	b6 fe       	sbrs	r11, 6
    53ae:	0b c0       	rjmp	.+22     	; 0x53c6 <vfprintf+0x2d2>
    53b0:	2b 2d       	mov	r18, r11
    53b2:	2e 7f       	andi	r18, 0xFE	; 254
    53b4:	a5 14       	cp	r10, r5
    53b6:	50 f4       	brcc	.+20     	; 0x53cc <vfprintf+0x2d8>
    53b8:	b4 fe       	sbrs	r11, 4
    53ba:	0a c0       	rjmp	.+20     	; 0x53d0 <vfprintf+0x2dc>
    53bc:	b2 fc       	sbrc	r11, 2
    53be:	08 c0       	rjmp	.+16     	; 0x53d0 <vfprintf+0x2dc>
    53c0:	2b 2d       	mov	r18, r11
    53c2:	2e 7e       	andi	r18, 0xEE	; 238
    53c4:	05 c0       	rjmp	.+10     	; 0x53d0 <vfprintf+0x2dc>
    53c6:	7a 2c       	mov	r7, r10
    53c8:	2b 2d       	mov	r18, r11
    53ca:	03 c0       	rjmp	.+6      	; 0x53d2 <vfprintf+0x2de>
    53cc:	7a 2c       	mov	r7, r10
    53ce:	01 c0       	rjmp	.+2      	; 0x53d2 <vfprintf+0x2de>
    53d0:	75 2c       	mov	r7, r5
    53d2:	24 ff       	sbrs	r18, 4
    53d4:	0d c0       	rjmp	.+26     	; 0x53f0 <vfprintf+0x2fc>
    53d6:	fe 01       	movw	r30, r28
    53d8:	ea 0d       	add	r30, r10
    53da:	f1 1d       	adc	r31, r1
    53dc:	80 81       	ld	r24, Z
    53de:	80 33       	cpi	r24, 0x30	; 48
    53e0:	11 f4       	brne	.+4      	; 0x53e6 <vfprintf+0x2f2>
    53e2:	29 7e       	andi	r18, 0xE9	; 233
    53e4:	09 c0       	rjmp	.+18     	; 0x53f8 <vfprintf+0x304>
    53e6:	22 ff       	sbrs	r18, 2
    53e8:	06 c0       	rjmp	.+12     	; 0x53f6 <vfprintf+0x302>
    53ea:	73 94       	inc	r7
    53ec:	73 94       	inc	r7
    53ee:	04 c0       	rjmp	.+8      	; 0x53f8 <vfprintf+0x304>
    53f0:	82 2f       	mov	r24, r18
    53f2:	86 78       	andi	r24, 0x86	; 134
    53f4:	09 f0       	breq	.+2      	; 0x53f8 <vfprintf+0x304>
    53f6:	73 94       	inc	r7
    53f8:	23 fd       	sbrc	r18, 3
    53fa:	13 c0       	rjmp	.+38     	; 0x5422 <vfprintf+0x32e>
    53fc:	20 ff       	sbrs	r18, 0
    53fe:	06 c0       	rjmp	.+12     	; 0x540c <vfprintf+0x318>
    5400:	5a 2c       	mov	r5, r10
    5402:	73 14       	cp	r7, r3
    5404:	18 f4       	brcc	.+6      	; 0x540c <vfprintf+0x318>
    5406:	53 0c       	add	r5, r3
    5408:	57 18       	sub	r5, r7
    540a:	73 2c       	mov	r7, r3
    540c:	73 14       	cp	r7, r3
    540e:	68 f4       	brcc	.+26     	; 0x542a <vfprintf+0x336>
    5410:	b7 01       	movw	r22, r14
    5412:	80 e2       	ldi	r24, 0x20	; 32
    5414:	90 e0       	ldi	r25, 0x00	; 0
    5416:	2c 87       	std	Y+12, r18	; 0x0c
    5418:	0e 94 8b 2a 	call	0x5516	; 0x5516 <fputc>
    541c:	73 94       	inc	r7
    541e:	2c 85       	ldd	r18, Y+12	; 0x0c
    5420:	f5 cf       	rjmp	.-22     	; 0x540c <vfprintf+0x318>
    5422:	73 14       	cp	r7, r3
    5424:	10 f4       	brcc	.+4      	; 0x542a <vfprintf+0x336>
    5426:	37 18       	sub	r3, r7
    5428:	01 c0       	rjmp	.+2      	; 0x542c <vfprintf+0x338>
    542a:	31 2c       	mov	r3, r1
    542c:	24 ff       	sbrs	r18, 4
    542e:	12 c0       	rjmp	.+36     	; 0x5454 <vfprintf+0x360>
    5430:	b7 01       	movw	r22, r14
    5432:	80 e3       	ldi	r24, 0x30	; 48
    5434:	90 e0       	ldi	r25, 0x00	; 0
    5436:	2c 87       	std	Y+12, r18	; 0x0c
    5438:	0e 94 8b 2a 	call	0x5516	; 0x5516 <fputc>
    543c:	2c 85       	ldd	r18, Y+12	; 0x0c
    543e:	22 ff       	sbrs	r18, 2
    5440:	17 c0       	rjmp	.+46     	; 0x5470 <vfprintf+0x37c>
    5442:	21 ff       	sbrs	r18, 1
    5444:	03 c0       	rjmp	.+6      	; 0x544c <vfprintf+0x358>
    5446:	88 e5       	ldi	r24, 0x58	; 88
    5448:	90 e0       	ldi	r25, 0x00	; 0
    544a:	02 c0       	rjmp	.+4      	; 0x5450 <vfprintf+0x35c>
    544c:	88 e7       	ldi	r24, 0x78	; 120
    544e:	90 e0       	ldi	r25, 0x00	; 0
    5450:	b7 01       	movw	r22, r14
    5452:	0c c0       	rjmp	.+24     	; 0x546c <vfprintf+0x378>
    5454:	82 2f       	mov	r24, r18
    5456:	86 78       	andi	r24, 0x86	; 134
    5458:	59 f0       	breq	.+22     	; 0x5470 <vfprintf+0x37c>
    545a:	21 fd       	sbrc	r18, 1
    545c:	02 c0       	rjmp	.+4      	; 0x5462 <vfprintf+0x36e>
    545e:	80 e2       	ldi	r24, 0x20	; 32
    5460:	01 c0       	rjmp	.+2      	; 0x5464 <vfprintf+0x370>
    5462:	8b e2       	ldi	r24, 0x2B	; 43
    5464:	27 fd       	sbrc	r18, 7
    5466:	8d e2       	ldi	r24, 0x2D	; 45
    5468:	b7 01       	movw	r22, r14
    546a:	90 e0       	ldi	r25, 0x00	; 0
    546c:	0e 94 8b 2a 	call	0x5516	; 0x5516 <fputc>
    5470:	a5 14       	cp	r10, r5
    5472:	38 f4       	brcc	.+14     	; 0x5482 <vfprintf+0x38e>
    5474:	b7 01       	movw	r22, r14
    5476:	80 e3       	ldi	r24, 0x30	; 48
    5478:	90 e0       	ldi	r25, 0x00	; 0
    547a:	0e 94 8b 2a 	call	0x5516	; 0x5516 <fputc>
    547e:	5a 94       	dec	r5
    5480:	f7 cf       	rjmp	.-18     	; 0x5470 <vfprintf+0x37c>
    5482:	aa 94       	dec	r10
    5484:	f4 01       	movw	r30, r8
    5486:	ea 0d       	add	r30, r10
    5488:	f1 1d       	adc	r31, r1
    548a:	80 81       	ld	r24, Z
    548c:	b7 01       	movw	r22, r14
    548e:	90 e0       	ldi	r25, 0x00	; 0
    5490:	0e 94 8b 2a 	call	0x5516	; 0x5516 <fputc>
    5494:	a1 10       	cpse	r10, r1
    5496:	f5 cf       	rjmp	.-22     	; 0x5482 <vfprintf+0x38e>
    5498:	33 20       	and	r3, r3
    549a:	09 f4       	brne	.+2      	; 0x549e <vfprintf+0x3aa>
    549c:	51 ce       	rjmp	.-862    	; 0x5140 <vfprintf+0x4c>
    549e:	b7 01       	movw	r22, r14
    54a0:	80 e2       	ldi	r24, 0x20	; 32
    54a2:	90 e0       	ldi	r25, 0x00	; 0
    54a4:	0e 94 8b 2a 	call	0x5516	; 0x5516 <fputc>
    54a8:	3a 94       	dec	r3
    54aa:	f6 cf       	rjmp	.-20     	; 0x5498 <vfprintf+0x3a4>
    54ac:	f7 01       	movw	r30, r14
    54ae:	86 81       	ldd	r24, Z+6	; 0x06
    54b0:	97 81       	ldd	r25, Z+7	; 0x07
    54b2:	02 c0       	rjmp	.+4      	; 0x54b8 <vfprintf+0x3c4>
    54b4:	8f ef       	ldi	r24, 0xFF	; 255
    54b6:	9f ef       	ldi	r25, 0xFF	; 255
    54b8:	2c 96       	adiw	r28, 0x0c	; 12
    54ba:	0f b6       	in	r0, 0x3f	; 63
    54bc:	f8 94       	cli
    54be:	de bf       	out	0x3e, r29	; 62
    54c0:	0f be       	out	0x3f, r0	; 63
    54c2:	cd bf       	out	0x3d, r28	; 61
    54c4:	df 91       	pop	r29
    54c6:	cf 91       	pop	r28
    54c8:	1f 91       	pop	r17
    54ca:	0f 91       	pop	r16
    54cc:	ff 90       	pop	r15
    54ce:	ef 90       	pop	r14
    54d0:	df 90       	pop	r13
    54d2:	cf 90       	pop	r12
    54d4:	bf 90       	pop	r11
    54d6:	af 90       	pop	r10
    54d8:	9f 90       	pop	r9
    54da:	8f 90       	pop	r8
    54dc:	7f 90       	pop	r7
    54de:	6f 90       	pop	r6
    54e0:	5f 90       	pop	r5
    54e2:	4f 90       	pop	r4
    54e4:	3f 90       	pop	r3
    54e6:	2f 90       	pop	r2
    54e8:	08 95       	ret

000054ea <strnlen_P>:
    54ea:	fc 01       	movw	r30, r24
    54ec:	05 90       	lpm	r0, Z+
    54ee:	61 50       	subi	r22, 0x01	; 1
    54f0:	70 40       	sbci	r23, 0x00	; 0
    54f2:	01 10       	cpse	r0, r1
    54f4:	d8 f7       	brcc	.-10     	; 0x54ec <strnlen_P+0x2>
    54f6:	80 95       	com	r24
    54f8:	90 95       	com	r25
    54fa:	8e 0f       	add	r24, r30
    54fc:	9f 1f       	adc	r25, r31
    54fe:	08 95       	ret

00005500 <strnlen>:
    5500:	fc 01       	movw	r30, r24
    5502:	61 50       	subi	r22, 0x01	; 1
    5504:	70 40       	sbci	r23, 0x00	; 0
    5506:	01 90       	ld	r0, Z+
    5508:	01 10       	cpse	r0, r1
    550a:	d8 f7       	brcc	.-10     	; 0x5502 <strnlen+0x2>
    550c:	80 95       	com	r24
    550e:	90 95       	com	r25
    5510:	8e 0f       	add	r24, r30
    5512:	9f 1f       	adc	r25, r31
    5514:	08 95       	ret

00005516 <fputc>:
    5516:	0f 93       	push	r16
    5518:	1f 93       	push	r17
    551a:	cf 93       	push	r28
    551c:	df 93       	push	r29
    551e:	18 2f       	mov	r17, r24
    5520:	09 2f       	mov	r16, r25
    5522:	eb 01       	movw	r28, r22
    5524:	8b 81       	ldd	r24, Y+3	; 0x03
    5526:	81 fd       	sbrc	r24, 1
    5528:	03 c0       	rjmp	.+6      	; 0x5530 <fputc+0x1a>
    552a:	8f ef       	ldi	r24, 0xFF	; 255
    552c:	9f ef       	ldi	r25, 0xFF	; 255
    552e:	20 c0       	rjmp	.+64     	; 0x5570 <fputc+0x5a>
    5530:	82 ff       	sbrs	r24, 2
    5532:	10 c0       	rjmp	.+32     	; 0x5554 <fputc+0x3e>
    5534:	4e 81       	ldd	r20, Y+6	; 0x06
    5536:	5f 81       	ldd	r21, Y+7	; 0x07
    5538:	2c 81       	ldd	r18, Y+4	; 0x04
    553a:	3d 81       	ldd	r19, Y+5	; 0x05
    553c:	42 17       	cp	r20, r18
    553e:	53 07       	cpc	r21, r19
    5540:	7c f4       	brge	.+30     	; 0x5560 <fputc+0x4a>
    5542:	e8 81       	ld	r30, Y
    5544:	f9 81       	ldd	r31, Y+1	; 0x01
    5546:	9f 01       	movw	r18, r30
    5548:	2f 5f       	subi	r18, 0xFF	; 255
    554a:	3f 4f       	sbci	r19, 0xFF	; 255
    554c:	39 83       	std	Y+1, r19	; 0x01
    554e:	28 83       	st	Y, r18
    5550:	10 83       	st	Z, r17
    5552:	06 c0       	rjmp	.+12     	; 0x5560 <fputc+0x4a>
    5554:	e8 85       	ldd	r30, Y+8	; 0x08
    5556:	f9 85       	ldd	r31, Y+9	; 0x09
    5558:	81 2f       	mov	r24, r17
    555a:	19 95       	eicall
    555c:	89 2b       	or	r24, r25
    555e:	29 f7       	brne	.-54     	; 0x552a <fputc+0x14>
    5560:	2e 81       	ldd	r18, Y+6	; 0x06
    5562:	3f 81       	ldd	r19, Y+7	; 0x07
    5564:	2f 5f       	subi	r18, 0xFF	; 255
    5566:	3f 4f       	sbci	r19, 0xFF	; 255
    5568:	3f 83       	std	Y+7, r19	; 0x07
    556a:	2e 83       	std	Y+6, r18	; 0x06
    556c:	81 2f       	mov	r24, r17
    556e:	90 2f       	mov	r25, r16
    5570:	df 91       	pop	r29
    5572:	cf 91       	pop	r28
    5574:	1f 91       	pop	r17
    5576:	0f 91       	pop	r16
    5578:	08 95       	ret

0000557a <__ultoa_invert>:
    557a:	fa 01       	movw	r30, r20
    557c:	aa 27       	eor	r26, r26
    557e:	28 30       	cpi	r18, 0x08	; 8
    5580:	51 f1       	breq	.+84     	; 0x55d6 <__ultoa_invert+0x5c>
    5582:	20 31       	cpi	r18, 0x10	; 16
    5584:	81 f1       	breq	.+96     	; 0x55e6 <__ultoa_invert+0x6c>
    5586:	e8 94       	clt
    5588:	6f 93       	push	r22
    558a:	6e 7f       	andi	r22, 0xFE	; 254
    558c:	6e 5f       	subi	r22, 0xFE	; 254
    558e:	7f 4f       	sbci	r23, 0xFF	; 255
    5590:	8f 4f       	sbci	r24, 0xFF	; 255
    5592:	9f 4f       	sbci	r25, 0xFF	; 255
    5594:	af 4f       	sbci	r26, 0xFF	; 255
    5596:	b1 e0       	ldi	r27, 0x01	; 1
    5598:	3e d0       	rcall	.+124    	; 0x5616 <__ultoa_invert+0x9c>
    559a:	b4 e0       	ldi	r27, 0x04	; 4
    559c:	3c d0       	rcall	.+120    	; 0x5616 <__ultoa_invert+0x9c>
    559e:	67 0f       	add	r22, r23
    55a0:	78 1f       	adc	r23, r24
    55a2:	89 1f       	adc	r24, r25
    55a4:	9a 1f       	adc	r25, r26
    55a6:	a1 1d       	adc	r26, r1
    55a8:	68 0f       	add	r22, r24
    55aa:	79 1f       	adc	r23, r25
    55ac:	8a 1f       	adc	r24, r26
    55ae:	91 1d       	adc	r25, r1
    55b0:	a1 1d       	adc	r26, r1
    55b2:	6a 0f       	add	r22, r26
    55b4:	71 1d       	adc	r23, r1
    55b6:	81 1d       	adc	r24, r1
    55b8:	91 1d       	adc	r25, r1
    55ba:	a1 1d       	adc	r26, r1
    55bc:	20 d0       	rcall	.+64     	; 0x55fe <__ultoa_invert+0x84>
    55be:	09 f4       	brne	.+2      	; 0x55c2 <__ultoa_invert+0x48>
    55c0:	68 94       	set
    55c2:	3f 91       	pop	r19
    55c4:	2a e0       	ldi	r18, 0x0A	; 10
    55c6:	26 9f       	mul	r18, r22
    55c8:	11 24       	eor	r1, r1
    55ca:	30 19       	sub	r19, r0
    55cc:	30 5d       	subi	r19, 0xD0	; 208
    55ce:	31 93       	st	Z+, r19
    55d0:	de f6       	brtc	.-74     	; 0x5588 <__ultoa_invert+0xe>
    55d2:	cf 01       	movw	r24, r30
    55d4:	08 95       	ret
    55d6:	46 2f       	mov	r20, r22
    55d8:	47 70       	andi	r20, 0x07	; 7
    55da:	40 5d       	subi	r20, 0xD0	; 208
    55dc:	41 93       	st	Z+, r20
    55de:	b3 e0       	ldi	r27, 0x03	; 3
    55e0:	0f d0       	rcall	.+30     	; 0x5600 <__ultoa_invert+0x86>
    55e2:	c9 f7       	brne	.-14     	; 0x55d6 <__ultoa_invert+0x5c>
    55e4:	f6 cf       	rjmp	.-20     	; 0x55d2 <__ultoa_invert+0x58>
    55e6:	46 2f       	mov	r20, r22
    55e8:	4f 70       	andi	r20, 0x0F	; 15
    55ea:	40 5d       	subi	r20, 0xD0	; 208
    55ec:	4a 33       	cpi	r20, 0x3A	; 58
    55ee:	18 f0       	brcs	.+6      	; 0x55f6 <__ultoa_invert+0x7c>
    55f0:	49 5d       	subi	r20, 0xD9	; 217
    55f2:	31 fd       	sbrc	r19, 1
    55f4:	40 52       	subi	r20, 0x20	; 32
    55f6:	41 93       	st	Z+, r20
    55f8:	02 d0       	rcall	.+4      	; 0x55fe <__ultoa_invert+0x84>
    55fa:	a9 f7       	brne	.-22     	; 0x55e6 <__ultoa_invert+0x6c>
    55fc:	ea cf       	rjmp	.-44     	; 0x55d2 <__ultoa_invert+0x58>
    55fe:	b4 e0       	ldi	r27, 0x04	; 4
    5600:	a6 95       	lsr	r26
    5602:	97 95       	ror	r25
    5604:	87 95       	ror	r24
    5606:	77 95       	ror	r23
    5608:	67 95       	ror	r22
    560a:	ba 95       	dec	r27
    560c:	c9 f7       	brne	.-14     	; 0x5600 <__ultoa_invert+0x86>
    560e:	00 97       	sbiw	r24, 0x00	; 0
    5610:	61 05       	cpc	r22, r1
    5612:	71 05       	cpc	r23, r1
    5614:	08 95       	ret
    5616:	9b 01       	movw	r18, r22
    5618:	ac 01       	movw	r20, r24
    561a:	0a 2e       	mov	r0, r26
    561c:	06 94       	lsr	r0
    561e:	57 95       	ror	r21
    5620:	47 95       	ror	r20
    5622:	37 95       	ror	r19
    5624:	27 95       	ror	r18
    5626:	ba 95       	dec	r27
    5628:	c9 f7       	brne	.-14     	; 0x561c <__ultoa_invert+0xa2>
    562a:	62 0f       	add	r22, r18
    562c:	73 1f       	adc	r23, r19
    562e:	84 1f       	adc	r24, r20
    5630:	95 1f       	adc	r25, r21
    5632:	a0 1d       	adc	r26, r0
    5634:	08 95       	ret

00005636 <_exit>:
    5636:	f8 94       	cli

00005638 <__stop_program>:
    5638:	ff cf       	rjmp	.-2      	; 0x5638 <__stop_program>
